; ModuleID = 'bls12_mul.5faeeca7e3bee518-cgu.0'
source_filename = "bls12_mul.5faeeca7e3bee518-cgu.0"
target datalayout = "e-m:e-p270:32:32-p271:32:32-p272:64:64-i64:64-f80:128-n8:16:32:64-S128"
target triple = "x86_64-unknown-linux-gnu"

@alloc_9b921ae87d3738fc962385f5b727e7d4 = private unnamed_addr constant <{ [12 x i8] }> <{ [12 x i8] c"bls12_mul.rs" }>, align 1
@alloc_e9bd63dd98e94b31ccf7d08f66ec79a5 = private unnamed_addr constant <{ ptr, [16 x i8] }> <{ ptr @alloc_9b921ae87d3738fc962385f5b727e7d4, [16 x i8] c"\0C\00\00\00\00\00\00\00X\03\00\00\0A\00\00\00" }>, align 8
@alloc_8f289943c5dfd7b314c24d06c8f083ca = private unnamed_addr constant <{ ptr, [16 x i8] }> <{ ptr @alloc_9b921ae87d3738fc962385f5b727e7d4, [16 x i8] c"\0C\00\00\00\00\00\00\00Y\03\00\00\0A\00\00\00" }>, align 8
@alloc_71c53652abca8a51eb60ebd3631eb768 = private unnamed_addr constant <{ ptr, [16 x i8] }> <{ ptr @alloc_9b921ae87d3738fc962385f5b727e7d4, [16 x i8] c"\0C\00\00\00\00\00\00\00Z\03\00\00\0A\00\00\00" }>, align 8
@alloc_1852ddabd7a7e545aeef1de9b485fe67 = private unnamed_addr constant <{ ptr, [16 x i8] }> <{ ptr @alloc_9b921ae87d3738fc962385f5b727e7d4, [16 x i8] c"\0C\00\00\00\00\00\00\00[\03\00\00\0A\00\00\00" }>, align 8
@alloc_932ab575725f35df0960868ec086384e = private unnamed_addr constant <{ ptr, [16 x i8] }> <{ ptr @alloc_9b921ae87d3738fc962385f5b727e7d4, [16 x i8] c"\0C\00\00\00\00\00\00\00\\\03\00\00\0A\00\00\00" }>, align 8
@alloc_60574b00e2fff1f9c05e4d546e000c83 = private unnamed_addr constant <{ ptr, [16 x i8] }> <{ ptr @alloc_9b921ae87d3738fc962385f5b727e7d4, [16 x i8] c"\0C\00\00\00\00\00\00\00]\03\00\00\0A\00\00\00" }>, align 8
@alloc_2c68f43360b35bda9eb427728e788b4b = private unnamed_addr constant <{ ptr, [16 x i8] }> <{ ptr @alloc_9b921ae87d3738fc962385f5b727e7d4, [16 x i8] c"\0C\00\00\00\00\00\00\00_\03\00\00\0A\00\00\00" }>, align 8
@alloc_fb947b470f1d012f353fe867ddfc52e5 = private unnamed_addr constant <{ ptr, [16 x i8] }> <{ ptr @alloc_9b921ae87d3738fc962385f5b727e7d4, [16 x i8] c"\0C\00\00\00\00\00\00\00`\03\00\00\0A\00\00\00" }>, align 8
@alloc_2513605e7e8ad7c4f4d2ef03df4c2730 = private unnamed_addr constant <{ ptr, [16 x i8] }> <{ ptr @alloc_9b921ae87d3738fc962385f5b727e7d4, [16 x i8] c"\0C\00\00\00\00\00\00\00a\03\00\00\0A\00\00\00" }>, align 8
@alloc_9abc5c5a3719caea0b6c1509c834d06a = private unnamed_addr constant <{ ptr, [16 x i8] }> <{ ptr @alloc_9b921ae87d3738fc962385f5b727e7d4, [16 x i8] c"\0C\00\00\00\00\00\00\00b\03\00\00\0A\00\00\00" }>, align 8
@alloc_0985a57f7ced15affe9dcab2ce37865d = private unnamed_addr constant <{ ptr, [16 x i8] }> <{ ptr @alloc_9b921ae87d3738fc962385f5b727e7d4, [16 x i8] c"\0C\00\00\00\00\00\00\00c\03\00\00\0B\00\00\00" }>, align 8
@alloc_e7e3feff08307baee212ddc5ca323a79 = private unnamed_addr constant <{ ptr, [16 x i8] }> <{ ptr @alloc_9b921ae87d3738fc962385f5b727e7d4, [16 x i8] c"\0C\00\00\00\00\00\00\00d\03\00\00\0B\00\00\00" }>, align 8
@alloc_54a0420761e120886671384eafca676e = private unnamed_addr constant <{ ptr, [16 x i8] }> <{ ptr @alloc_9b921ae87d3738fc962385f5b727e7d4, [16 x i8] c"\0C\00\00\00\00\00\00\00\B2\06\00\00\05\00\00\00" }>, align 8
@alloc_e71d16686660edf0ac4635f24d7ef080 = private unnamed_addr constant <{ ptr, [16 x i8] }> <{ ptr @alloc_9b921ae87d3738fc962385f5b727e7d4, [16 x i8] c"\0C\00\00\00\00\00\00\00\B3\06\00\00\05\00\00\00" }>, align 8
@alloc_c4a1da9892a9328aeb0c7ce56c96cc0f = private unnamed_addr constant <{ ptr, [16 x i8] }> <{ ptr @alloc_9b921ae87d3738fc962385f5b727e7d4, [16 x i8] c"\0C\00\00\00\00\00\00\00\B4\06\00\00\05\00\00\00" }>, align 8
@alloc_e4cb97ff5e3f19b11cae213b2805ff31 = private unnamed_addr constant <{ ptr, [16 x i8] }> <{ ptr @alloc_9b921ae87d3738fc962385f5b727e7d4, [16 x i8] c"\0C\00\00\00\00\00\00\00\B5\06\00\00\05\00\00\00" }>, align 8
@alloc_fe3a2b043de24dcbb1347ea6a56848d6 = private unnamed_addr constant <{ ptr, [16 x i8] }> <{ ptr @alloc_9b921ae87d3738fc962385f5b727e7d4, [16 x i8] c"\0C\00\00\00\00\00\00\00\B6\06\00\00\05\00\00\00" }>, align 8
@alloc_d960939cb83710d4cbb4de88fa25717c = private unnamed_addr constant <{ ptr, [16 x i8] }> <{ ptr @alloc_9b921ae87d3738fc962385f5b727e7d4, [16 x i8] c"\0C\00\00\00\00\00\00\00\B7\06\00\00\05\00\00\00" }>, align 8

; bls12_mul::bls12_mul
; Function Attrs: nonlazybind uwtable
define void @_RNvCs8djPTN4VrJI_9bls12_mul9bls12_mul(ptr noalias nocapture noundef nonnull writeonly align 8 %out0.0, i64 noundef %out0.1, ptr noalias nocapture noundef nonnull readonly align 8 %in0.0, i64 noundef %in0.1, ptr noalias nocapture noundef nonnull readonly align 8 %in1.0, i64 noundef %in1.1) unnamed_addr #0 {
start:
  %_353.not = icmp eq i64 %in0.1, 0
  br i1 %_353.not, label %panic, label %bb1, !prof !3

bb1:                                              ; preds = %start
  %x0 = load i64, ptr %in0.0, align 8, !noundef !4
  %_356.not = icmp eq i64 %in0.1, 1
  br i1 %_356.not, label %panic1, label %bb2, !prof !3

panic:                                            ; preds = %start
; call core::panicking::panic_bounds_check
  tail call void @_ZN4core9panicking18panic_bounds_check17h6879eeb39abdf99dE(i64 noundef 0, i64 noundef 0, ptr noalias noundef nonnull readonly align 8 dereferenceable(24) @alloc_e9bd63dd98e94b31ccf7d08f66ec79a5) #2
  unreachable

bb2:                                              ; preds = %bb1
  %0 = getelementptr inbounds [0 x i64], ptr %in0.0, i64 0, i64 1
  %x1 = load i64, ptr %0, align 8, !noundef !4
  %_359 = icmp ugt i64 %in0.1, 2
  br i1 %_359, label %bb3, label %panic2, !prof !5

panic1:                                           ; preds = %bb1
; call core::panicking::panic_bounds_check
  tail call void @_ZN4core9panicking18panic_bounds_check17h6879eeb39abdf99dE(i64 noundef 1, i64 noundef 1, ptr noalias noundef nonnull readonly align 8 dereferenceable(24) @alloc_8f289943c5dfd7b314c24d06c8f083ca) #2
  unreachable

bb3:                                              ; preds = %bb2
  %1 = getelementptr inbounds [0 x i64], ptr %in0.0, i64 0, i64 2
  %x2 = load i64, ptr %1, align 8, !noundef !4
  %_362.not = icmp eq i64 %in0.1, 3
  br i1 %_362.not, label %panic3, label %bb4, !prof !3

panic2:                                           ; preds = %bb2
; call core::panicking::panic_bounds_check
  tail call void @_ZN4core9panicking18panic_bounds_check17h6879eeb39abdf99dE(i64 noundef 2, i64 noundef 2, ptr noalias noundef nonnull readonly align 8 dereferenceable(24) @alloc_71c53652abca8a51eb60ebd3631eb768) #2
  unreachable

bb4:                                              ; preds = %bb3
  %2 = getelementptr inbounds [0 x i64], ptr %in0.0, i64 0, i64 3
  %x3 = load i64, ptr %2, align 8, !noundef !4
  %_365 = icmp ugt i64 %in0.1, 4
  br i1 %_365, label %bb5, label %panic4, !prof !5

panic3:                                           ; preds = %bb3
; call core::panicking::panic_bounds_check
  tail call void @_ZN4core9panicking18panic_bounds_check17h6879eeb39abdf99dE(i64 noundef 3, i64 noundef 3, ptr noalias noundef nonnull readonly align 8 dereferenceable(24) @alloc_1852ddabd7a7e545aeef1de9b485fe67) #2
  unreachable

bb5:                                              ; preds = %bb4
  %3 = getelementptr inbounds [0 x i64], ptr %in0.0, i64 0, i64 4
  %x4 = load i64, ptr %3, align 8, !noundef !4
  %_368.not = icmp eq i64 %in0.1, 5
  br i1 %_368.not, label %panic5, label %bb6, !prof !3

panic4:                                           ; preds = %bb4
; call core::panicking::panic_bounds_check
  tail call void @_ZN4core9panicking18panic_bounds_check17h6879eeb39abdf99dE(i64 noundef 4, i64 noundef 4, ptr noalias noundef nonnull readonly align 8 dereferenceable(24) @alloc_932ab575725f35df0960868ec086384e) #2
  unreachable

bb6:                                              ; preds = %bb5
  %4 = getelementptr inbounds [0 x i64], ptr %in0.0, i64 0, i64 5
  %x5 = load i64, ptr %4, align 8, !noundef !4
  %_371.not = icmp eq i64 %in1.1, 0
  br i1 %_371.not, label %panic6, label %bb7, !prof !3

panic5:                                           ; preds = %bb5
; call core::panicking::panic_bounds_check
  tail call void @_ZN4core9panicking18panic_bounds_check17h6879eeb39abdf99dE(i64 noundef 5, i64 noundef 5, ptr noalias noundef nonnull readonly align 8 dereferenceable(24) @alloc_60574b00e2fff1f9c05e4d546e000c83) #2
  unreachable

bb7:                                              ; preds = %bb6
  %x6 = load i64, ptr %in1.0, align 8, !noundef !4
  %_374.not = icmp eq i64 %in1.1, 1
  br i1 %_374.not, label %panic7, label %bb8, !prof !3

panic6:                                           ; preds = %bb6
; call core::panicking::panic_bounds_check
  tail call void @_ZN4core9panicking18panic_bounds_check17h6879eeb39abdf99dE(i64 noundef 0, i64 noundef 0, ptr noalias noundef nonnull readonly align 8 dereferenceable(24) @alloc_2c68f43360b35bda9eb427728e788b4b) #2
  unreachable

bb8:                                              ; preds = %bb7
  %5 = getelementptr inbounds [0 x i64], ptr %in1.0, i64 0, i64 1
  %x7 = load i64, ptr %5, align 8, !noundef !4
  %_377 = icmp ugt i64 %in1.1, 2
  br i1 %_377, label %bb9, label %panic8, !prof !5

panic7:                                           ; preds = %bb7
; call core::panicking::panic_bounds_check
  tail call void @_ZN4core9panicking18panic_bounds_check17h6879eeb39abdf99dE(i64 noundef 1, i64 noundef 1, ptr noalias noundef nonnull readonly align 8 dereferenceable(24) @alloc_fb947b470f1d012f353fe867ddfc52e5) #2
  unreachable

bb9:                                              ; preds = %bb8
  %6 = getelementptr inbounds [0 x i64], ptr %in1.0, i64 0, i64 2
  %x8 = load i64, ptr %6, align 8, !noundef !4
  %_380.not = icmp eq i64 %in1.1, 3
  br i1 %_380.not, label %panic9, label %bb10, !prof !3

panic8:                                           ; preds = %bb8
; call core::panicking::panic_bounds_check
  tail call void @_ZN4core9panicking18panic_bounds_check17h6879eeb39abdf99dE(i64 noundef 2, i64 noundef 2, ptr noalias noundef nonnull readonly align 8 dereferenceable(24) @alloc_2513605e7e8ad7c4f4d2ef03df4c2730) #2
  unreachable

bb10:                                             ; preds = %bb9
  %7 = getelementptr inbounds [0 x i64], ptr %in1.0, i64 0, i64 3
  %x9 = load i64, ptr %7, align 8, !noundef !4
  %_383 = icmp ugt i64 %in1.1, 4
  br i1 %_383, label %bb11, label %panic10, !prof !5

panic9:                                           ; preds = %bb9
; call core::panicking::panic_bounds_check
  tail call void @_ZN4core9panicking18panic_bounds_check17h6879eeb39abdf99dE(i64 noundef 3, i64 noundef 3, ptr noalias noundef nonnull readonly align 8 dereferenceable(24) @alloc_9abc5c5a3719caea0b6c1509c834d06a) #2
  unreachable

bb11:                                             ; preds = %bb10
  %_386.not = icmp eq i64 %in1.1, 5
  br i1 %_386.not, label %panic11, label %bb12, !prof !3

panic10:                                          ; preds = %bb10
; call core::panicking::panic_bounds_check
  tail call void @_ZN4core9panicking18panic_bounds_check17h6879eeb39abdf99dE(i64 noundef 4, i64 noundef 4, ptr noalias noundef nonnull readonly align 8 dereferenceable(24) @alloc_0985a57f7ced15affe9dcab2ce37865d) #2
  unreachable

bb12:                                             ; preds = %bb11
  %8 = getelementptr inbounds [0 x i64], ptr %in1.0, i64 0, i64 4
  %x10 = load i64, ptr %8, align 8, !noundef !4
  %9 = getelementptr inbounds [0 x i64], ptr %in1.0, i64 0, i64 5
  %x11 = load i64, ptr %9, align 8, !noundef !4
  %_0.i = mul i64 %x11, %x0
  %_390 = zext i64 %x0 to i128
  %_391 = zext i64 %x11 to i128
  %_0.i18 = mul nuw i128 %_391, %_390
  %_388 = lshr i128 %_0.i18, 64
  %x19 = trunc i128 %_388 to i64
  %_0.i19 = mul i64 %x10, %x0
  %_396 = zext i64 %x10 to i128
  %_0.i20 = mul nuw i128 %_396, %_390
  %_393 = lshr i128 %_0.i20, 64
  %x21 = trunc i128 %_393 to i64
  %_0.i21 = mul i64 %x9, %x0
  %_401 = zext i64 %x9 to i128
  %_0.i22 = mul nuw i128 %_401, %_390
  %_398 = lshr i128 %_0.i22, 64
  %x23 = trunc i128 %_398 to i64
  %_0.i23 = mul i64 %x8, %x0
  %_406 = zext i64 %x8 to i128
  %_0.i24 = mul nuw i128 %_406, %_390
  %_403 = lshr i128 %_0.i24, 64
  %x25 = trunc i128 %_403 to i64
  %_0.i25 = mul i64 %x7, %x0
  %_411 = zext i64 %x7 to i128
  %_0.i26 = mul nuw i128 %_411, %_390
  %_408 = lshr i128 %_0.i26, 64
  %x27 = trunc i128 %_408 to i64
  %_0.i27 = mul i64 %x6, %x0
  %_416 = zext i64 %x6 to i128
  %_0.i28 = mul nuw i128 %_416, %_390
  %_413 = lshr i128 %_0.i28, 64
  %x29 = trunc i128 %_413 to i64
  %_0.i29 = add i64 %_0.i25, %x29
  %_418 = icmp ult i64 %_0.i29, %x29
  %x31 = zext i1 %_418 to i64
  %_0.i30 = add nuw i64 %x27, %x31
  %_0.i31 = add i64 %_0.i23, %_0.i30
  %_422 = icmp ult i64 %_0.i31, %_0.i23
  %x35 = zext i1 %_422 to i64
  %_0.i33 = add i64 %x35, %x25
  %_425 = icmp ult i64 %_0.i33, %x25
  %x38 = zext i1 %_425 to i64
  %_0.i34 = add i64 %_0.i21, %_0.i33
  %_427 = icmp ult i64 %_0.i34, %_0.i21
  %x40 = zext i1 %_427 to i64
  %_0.i35 = add nuw nsw i64 %x40, %x38
  %_0.i36 = add i64 %_0.i35, %x23
  %_430 = icmp ult i64 %_0.i36, %x23
  %x43 = zext i1 %_430 to i64
  %_0.i37 = add i64 %_0.i19, %_0.i36
  %_432 = icmp ult i64 %_0.i37, %_0.i19
  %x45 = zext i1 %_432 to i64
  %_0.i38 = add nuw nsw i64 %x45, %x43
  %_0.i39 = add i64 %_0.i38, %x21
  %_435 = icmp ult i64 %_0.i39, %x21
  %x48 = zext i1 %_435 to i64
  %_0.i40 = add i64 %_0.i39, %_0.i
  %_437 = icmp ult i64 %_0.i40, %_0.i
  %x50 = zext i1 %_437 to i64
  %_0.i41 = add nuw i64 %x48, %x19
  %_0.i42 = add i64 %_0.i41, %x50
  %_0.i43 = mul i64 %_0.i27, -8506173809081122819
  %_0.i44 = mul i64 %_0.i27, 326064518108171314
  %_444 = zext i64 %_0.i43 to i128
  %_0.i45 = mul nuw nsw i128 %_444, 1873798617647539866
  %_442 = lshr i128 %_0.i45, 64
  %x55 = trunc i128 %_442 to i64
  %_0.i46 = mul i64 %_0.i27, 2995800253092329851
  %_0.i47 = mul nuw nsw i128 %_444, 5412103778470702295
  %_446 = lshr i128 %_0.i47, 64
  %x57 = trunc i128 %_446 to i64
  %_0.i48 = mul i64 %_0.i27, 3064711249896130499
  %_0.i49 = mul nuw nsw i128 %_444, 7239337960414712511
  %_450 = lshr i128 %_0.i49, 64
  %x59 = trunc i128 %_450 to i64
  %_0.i50 = mul i64 %_0.i27, 5532603552561700244
  %_0.i51 = mul nuw nsw i128 %_444, 7435674573564081700
  %_454 = lshr i128 %_0.i51, 64
  %x61 = trunc i128 %_454 to i64
  %_0.i52 = mul i64 %_0.i27, 436827220531937283
  %_0.i53 = mul nuw nsw i128 %_444, 2210141511517208575
  %_458 = lshr i128 %_0.i53, 64
  %x63 = trunc i128 %_458 to i64
  %_0.i55 = mul nuw i128 %_444, 13402431016077863595
  %_462 = lshr i128 %_0.i55, 64
  %x65 = trunc i128 %_462 to i64
  %_0.i56 = add i64 %_0.i52, %x65
  %_466 = icmp ult i64 %_0.i56, %x65
  %x67 = zext i1 %_466 to i64
  %_0.i57 = add i64 %_0.i50, %x63
  %_0.i58 = add i64 %_0.i57, %x67
  %_470 = icmp ult i64 %_0.i58, %_0.i50
  %x71 = zext i1 %_470 to i64
  %_0.i60 = add i64 %_0.i48, %x61
  %_0.i61 = add i64 %_0.i60, %x71
  %_475 = icmp ult i64 %_0.i61, %_0.i48
  %x76 = zext i1 %_475 to i64
  %_0.i63 = add i64 %_0.i46, %x59
  %_0.i64 = add i64 %_0.i63, %x76
  %_480 = icmp ult i64 %_0.i64, %_0.i46
  %x81 = zext i1 %_480 to i64
  %_0.i66 = add i64 %_0.i44, %x57
  %_0.i67 = add i64 %_0.i66, %x81
  %_485 = icmp ult i64 %_0.i67, %_0.i44
  %x86 = zext i1 %_485 to i64
  %_0.i69 = add nuw nsw i64 %x86, %x55
  %_489 = icmp ne i64 %_0.i27, 0
  %x90 = zext i1 %_489 to i64
  %_0.i71 = add i64 %_0.i29, %x90
  %_491 = icmp ult i64 %_0.i71, %_0.i29
  %x92 = zext i1 %_491 to i64
  %_0.i72 = add i64 %_0.i71, %_0.i56
  %_493 = icmp ult i64 %_0.i72, %_0.i56
  %x94 = zext i1 %_493 to i64
  %_0.i73 = add nuw nsw i64 %x94, %x92
  %_0.i74 = add i64 %_0.i73, %_0.i31
  %_496 = icmp ult i64 %_0.i74, %_0.i31
  %x97 = zext i1 %_496 to i64
  %_0.i75 = add i64 %_0.i74, %_0.i58
  %_498 = icmp ult i64 %_0.i75, %_0.i58
  %x99 = zext i1 %_498 to i64
  %_0.i76 = add nuw nsw i64 %x99, %x97
  %_0.i77 = add i64 %_0.i76, %_0.i34
  %_501 = icmp ult i64 %_0.i77, %_0.i34
  %x102 = zext i1 %_501 to i64
  %_0.i78 = add i64 %_0.i77, %_0.i61
  %_503 = icmp ult i64 %_0.i78, %_0.i61
  %x104 = zext i1 %_503 to i64
  %_0.i79 = add nuw nsw i64 %x104, %x102
  %_0.i80 = add i64 %_0.i79, %_0.i37
  %_506 = icmp ult i64 %_0.i80, %_0.i37
  %x107 = zext i1 %_506 to i64
  %_0.i81 = add i64 %_0.i80, %_0.i64
  %_508 = icmp ult i64 %_0.i81, %_0.i64
  %x109 = zext i1 %_508 to i64
  %_0.i82 = add nuw nsw i64 %x109, %x107
  %_0.i83 = add i64 %_0.i82, %_0.i40
  %_511 = icmp ult i64 %_0.i83, %_0.i40
  %x112 = zext i1 %_511 to i64
  %_0.i84 = add i64 %_0.i83, %_0.i67
  %_513 = icmp ult i64 %_0.i84, %_0.i67
  %x114 = zext i1 %_513 to i64
  %_0.i85 = add nuw nsw i64 %x114, %x112
  %_0.i86 = add i64 %_0.i85, %_0.i42
  %_516 = icmp ult i64 %_0.i86, %_0.i42
  %x117 = zext i1 %_516 to i64
  %_0.i87 = add i64 %_0.i86, %_0.i69
  %_518 = icmp ult i64 %_0.i87, %_0.i69
  %x119 = zext i1 %_518 to i64
  %_0.i89 = mul i64 %x11, %x1
  %_523 = zext i64 %x1 to i128
  %_0.i90 = mul nuw i128 %_391, %_523
  %_521 = lshr i128 %_0.i90, 64
  %x122 = trunc i128 %_521 to i64
  %_0.i91 = mul i64 %x10, %x1
  %_0.i92 = mul nuw i128 %_396, %_523
  %_526 = lshr i128 %_0.i92, 64
  %x124 = trunc i128 %_526 to i64
  %_0.i93 = mul i64 %x9, %x1
  %_0.i94 = mul nuw i128 %_401, %_523
  %_531 = lshr i128 %_0.i94, 64
  %x126 = trunc i128 %_531 to i64
  %_0.i95 = mul i64 %x8, %x1
  %_0.i96 = mul nuw i128 %_406, %_523
  %_536 = lshr i128 %_0.i96, 64
  %x128 = trunc i128 %_536 to i64
  %_0.i97 = mul i64 %x7, %x1
  %_0.i98 = mul nuw i128 %_411, %_523
  %_541 = lshr i128 %_0.i98, 64
  %x130 = trunc i128 %_541 to i64
  %_0.i99 = mul i64 %x6, %x1
  %_0.i100 = mul nuw i128 %_416, %_523
  %_546 = lshr i128 %_0.i100, 64
  %x132 = trunc i128 %_546 to i64
  %_0.i101 = add i64 %_0.i97, %x132
  %_551 = icmp ult i64 %_0.i101, %x132
  %x134 = zext i1 %_551 to i64
  %_0.i102 = add nuw i64 %x130, %x134
  %_0.i103 = add i64 %_0.i95, %_0.i102
  %_555 = icmp ult i64 %_0.i103, %_0.i95
  %x138 = zext i1 %_555 to i64
  %_0.i105 = add i64 %x138, %x128
  %_558 = icmp ult i64 %_0.i105, %x128
  %x141 = zext i1 %_558 to i64
  %_0.i106 = add i64 %_0.i93, %_0.i105
  %_560 = icmp ult i64 %_0.i106, %_0.i93
  %x143 = zext i1 %_560 to i64
  %_0.i107 = add nuw nsw i64 %x143, %x141
  %_0.i108 = add i64 %_0.i107, %x126
  %_563 = icmp ult i64 %_0.i108, %x126
  %x146 = zext i1 %_563 to i64
  %_0.i109 = add i64 %_0.i91, %_0.i108
  %_565 = icmp ult i64 %_0.i109, %_0.i91
  %x148 = zext i1 %_565 to i64
  %_0.i110 = add nuw nsw i64 %x148, %x146
  %_0.i111 = add i64 %_0.i110, %x124
  %_568 = icmp ult i64 %_0.i111, %x124
  %x151 = zext i1 %_568 to i64
  %_0.i112 = add i64 %_0.i111, %_0.i89
  %_570 = icmp ult i64 %_0.i112, %_0.i89
  %x153 = zext i1 %_570 to i64
  %_0.i113 = add nuw i64 %x151, %x122
  %_0.i114 = add i64 %_0.i113, %x153
  %_0.i115 = add i64 %_0.i72, %_0.i99
  %_574 = icmp ult i64 %_0.i115, %_0.i72
  %x157 = zext i1 %_574 to i64
  %_0.i116 = add i64 %_0.i75, %x157
  %_576 = icmp ult i64 %_0.i116, %_0.i75
  %x159 = zext i1 %_576 to i64
  %_0.i117 = add i64 %_0.i116, %_0.i101
  %_578 = icmp ult i64 %_0.i117, %_0.i101
  %x161 = zext i1 %_578 to i64
  %_0.i118 = add nuw nsw i64 %x161, %x159
  %_0.i119 = add i64 %_0.i118, %_0.i78
  %_581 = icmp ult i64 %_0.i119, %_0.i78
  %x164 = zext i1 %_581 to i64
  %_0.i120 = add i64 %_0.i119, %_0.i103
  %_583 = icmp ult i64 %_0.i120, %_0.i103
  %x166 = zext i1 %_583 to i64
  %_0.i121 = add nuw nsw i64 %x166, %x164
  %_0.i122 = add i64 %_0.i121, %_0.i81
  %_586 = icmp ult i64 %_0.i122, %_0.i81
  %x169 = zext i1 %_586 to i64
  %_0.i123 = add i64 %_0.i122, %_0.i106
  %_588 = icmp ult i64 %_0.i123, %_0.i106
  %x171 = zext i1 %_588 to i64
  %_0.i124 = add nuw nsw i64 %x171, %x169
  %_0.i125 = add i64 %_0.i124, %_0.i84
  %_591 = icmp ult i64 %_0.i125, %_0.i84
  %x174 = zext i1 %_591 to i64
  %_0.i126 = add i64 %_0.i125, %_0.i109
  %_593 = icmp ult i64 %_0.i126, %_0.i109
  %x176 = zext i1 %_593 to i64
  %_0.i127 = add nuw nsw i64 %x176, %x174
  %_0.i128 = add i64 %_0.i127, %_0.i87
  %_596 = icmp ult i64 %_0.i128, %_0.i87
  %x179 = zext i1 %_596 to i64
  %_0.i129 = add i64 %_0.i128, %_0.i112
  %_598 = icmp ult i64 %_0.i129, %_0.i112
  %x181 = zext i1 %_598 to i64
  %_0.i130 = add i64 %_0.i114, %x117
  %_0.i88 = add i64 %_0.i130, %x119
  %_0.i131 = add i64 %_0.i88, %x179
  %_0.i132 = add i64 %_0.i131, %x181
  %_603 = icmp ult i64 %_0.i132, %_0.i114
  %x186 = zext i1 %_603 to i64
  %_0.i134 = mul i64 %_0.i115, -8506173809081122819
  %_0.i135 = mul i64 %_0.i115, 326064518108171314
  %_609 = zext i64 %_0.i134 to i128
  %_0.i136 = mul nuw nsw i128 %_609, 1873798617647539866
  %_607 = lshr i128 %_0.i136, 64
  %x190 = trunc i128 %_607 to i64
  %_0.i137 = mul i64 %_0.i115, 2995800253092329851
  %_0.i138 = mul nuw nsw i128 %_609, 5412103778470702295
  %_611 = lshr i128 %_0.i138, 64
  %x192 = trunc i128 %_611 to i64
  %_0.i139 = mul i64 %_0.i115, 3064711249896130499
  %_0.i140 = mul nuw nsw i128 %_609, 7239337960414712511
  %_615 = lshr i128 %_0.i140, 64
  %x194 = trunc i128 %_615 to i64
  %_0.i141 = mul i64 %_0.i115, 5532603552561700244
  %_0.i142 = mul nuw nsw i128 %_609, 7435674573564081700
  %_619 = lshr i128 %_0.i142, 64
  %x196 = trunc i128 %_619 to i64
  %_0.i143 = mul i64 %_0.i115, 436827220531937283
  %_0.i144 = mul nuw nsw i128 %_609, 2210141511517208575
  %_623 = lshr i128 %_0.i144, 64
  %x198 = trunc i128 %_623 to i64
  %_0.i146 = mul nuw i128 %_609, 13402431016077863595
  %_627 = lshr i128 %_0.i146, 64
  %x200 = trunc i128 %_627 to i64
  %_0.i147 = add i64 %_0.i143, %x200
  %_631 = icmp ult i64 %_0.i147, %x200
  %x202 = zext i1 %_631 to i64
  %_0.i148 = add i64 %_0.i141, %x198
  %_0.i149 = add i64 %_0.i148, %x202
  %_635 = icmp ult i64 %_0.i149, %_0.i141
  %x206 = zext i1 %_635 to i64
  %_0.i151 = add i64 %_0.i139, %x196
  %_0.i152 = add i64 %_0.i151, %x206
  %_640 = icmp ult i64 %_0.i152, %_0.i139
  %x211 = zext i1 %_640 to i64
  %_0.i154 = add i64 %_0.i137, %x194
  %_0.i155 = add i64 %_0.i154, %x211
  %_645 = icmp ult i64 %_0.i155, %_0.i137
  %x216 = zext i1 %_645 to i64
  %_0.i157 = add i64 %_0.i135, %x192
  %_0.i158 = add i64 %_0.i157, %x216
  %_650 = icmp ult i64 %_0.i158, %_0.i135
  %x221 = zext i1 %_650 to i64
  %_0.i160 = add nuw nsw i64 %x221, %x190
  %_654 = icmp ne i64 %_0.i115, 0
  %x225 = zext i1 %_654 to i64
  %_0.i162 = add i64 %_0.i117, %x225
  %_656 = icmp ult i64 %_0.i162, %_0.i117
  %x227 = zext i1 %_656 to i64
  %_0.i163 = add i64 %_0.i162, %_0.i147
  %_658 = icmp ult i64 %_0.i163, %_0.i147
  %x229 = zext i1 %_658 to i64
  %_0.i164 = add nuw nsw i64 %x229, %x227
  %_0.i165 = add i64 %_0.i164, %_0.i120
  %_661 = icmp ult i64 %_0.i165, %_0.i120
  %x232 = zext i1 %_661 to i64
  %_0.i166 = add i64 %_0.i165, %_0.i149
  %_663 = icmp ult i64 %_0.i166, %_0.i149
  %x234 = zext i1 %_663 to i64
  %_0.i167 = add nuw nsw i64 %x234, %x232
  %_0.i168 = add i64 %_0.i167, %_0.i123
  %_666 = icmp ult i64 %_0.i168, %_0.i123
  %x237 = zext i1 %_666 to i64
  %_0.i169 = add i64 %_0.i168, %_0.i152
  %_668 = icmp ult i64 %_0.i169, %_0.i152
  %x239 = zext i1 %_668 to i64
  %_0.i170 = add nuw nsw i64 %x239, %x237
  %_0.i171 = add i64 %_0.i170, %_0.i126
  %_671 = icmp ult i64 %_0.i171, %_0.i126
  %x242 = zext i1 %_671 to i64
  %_0.i172 = add i64 %_0.i171, %_0.i155
  %_673 = icmp ult i64 %_0.i172, %_0.i155
  %x244 = zext i1 %_673 to i64
  %_0.i173 = add nuw nsw i64 %x244, %x242
  %_0.i174 = add i64 %_0.i173, %_0.i129
  %_676 = icmp ult i64 %_0.i174, %_0.i129
  %x247 = zext i1 %_676 to i64
  %_0.i175 = add i64 %_0.i174, %_0.i158
  %_678 = icmp ult i64 %_0.i175, %_0.i158
  %x249 = zext i1 %_678 to i64
  %_0.i176 = add nuw nsw i64 %x249, %x247
  %_0.i177 = add i64 %_0.i176, %_0.i132
  %_681 = icmp ult i64 %_0.i177, %_0.i132
  %x252 = zext i1 %_681 to i64
  %_0.i178 = add i64 %_0.i177, %_0.i160
  %_683 = icmp ult i64 %_0.i178, %_0.i160
  %x254 = zext i1 %_683 to i64
  %_0.i181 = mul i64 %x11, %x2
  %_689 = zext i64 %x2 to i128
  %_0.i182 = mul nuw i128 %_391, %_689
  %_687 = lshr i128 %_0.i182, 64
  %x258 = trunc i128 %_687 to i64
  %_0.i183 = mul i64 %x10, %x2
  %_0.i184 = mul nuw i128 %_396, %_689
  %_692 = lshr i128 %_0.i184, 64
  %x260 = trunc i128 %_692 to i64
  %_0.i185 = mul i64 %x9, %x2
  %_0.i186 = mul nuw i128 %_401, %_689
  %_697 = lshr i128 %_0.i186, 64
  %x262 = trunc i128 %_697 to i64
  %_0.i187 = mul i64 %x8, %x2
  %_0.i188 = mul nuw i128 %_406, %_689
  %_702 = lshr i128 %_0.i188, 64
  %x264 = trunc i128 %_702 to i64
  %_0.i189 = mul i64 %x7, %x2
  %_0.i190 = mul nuw i128 %_411, %_689
  %_707 = lshr i128 %_0.i190, 64
  %x266 = trunc i128 %_707 to i64
  %_0.i191 = mul i64 %x6, %x2
  %_0.i192 = mul nuw i128 %_416, %_689
  %_712 = lshr i128 %_0.i192, 64
  %x268 = trunc i128 %_712 to i64
  %_0.i193 = add i64 %_0.i189, %x268
  %_717 = icmp ult i64 %_0.i193, %x268
  %x270 = zext i1 %_717 to i64
  %_0.i194 = add nuw i64 %x266, %x270
  %_0.i195 = add i64 %_0.i187, %_0.i194
  %_721 = icmp ult i64 %_0.i195, %_0.i187
  %x274 = zext i1 %_721 to i64
  %_0.i197 = add i64 %x274, %x264
  %_724 = icmp ult i64 %_0.i197, %x264
  %x277 = zext i1 %_724 to i64
  %_0.i198 = add i64 %_0.i185, %_0.i197
  %_726 = icmp ult i64 %_0.i198, %_0.i185
  %x279 = zext i1 %_726 to i64
  %_0.i199 = add nuw nsw i64 %x279, %x277
  %_0.i200 = add i64 %_0.i199, %x262
  %_729 = icmp ult i64 %_0.i200, %x262
  %x282 = zext i1 %_729 to i64
  %_0.i201 = add i64 %_0.i183, %_0.i200
  %_731 = icmp ult i64 %_0.i201, %_0.i183
  %x284 = zext i1 %_731 to i64
  %_0.i202 = add nuw nsw i64 %x284, %x282
  %_0.i203 = add i64 %_0.i202, %x260
  %_734 = icmp ult i64 %_0.i203, %x260
  %x287 = zext i1 %_734 to i64
  %_0.i204 = add i64 %_0.i203, %_0.i181
  %_736 = icmp ult i64 %_0.i204, %_0.i181
  %x289 = zext i1 %_736 to i64
  %_0.i205 = add nuw i64 %x287, %x258
  %_0.i206 = add i64 %_0.i205, %x289
  %_0.i207 = add i64 %_0.i163, %_0.i191
  %_740 = icmp ult i64 %_0.i207, %_0.i163
  %x293 = zext i1 %_740 to i64
  %_0.i208 = add i64 %_0.i166, %x293
  %_742 = icmp ult i64 %_0.i208, %_0.i166
  %x295 = zext i1 %_742 to i64
  %_0.i209 = add i64 %_0.i208, %_0.i193
  %_744 = icmp ult i64 %_0.i209, %_0.i193
  %x297 = zext i1 %_744 to i64
  %_0.i210 = add nuw nsw i64 %x297, %x295
  %_0.i211 = add i64 %_0.i210, %_0.i169
  %_747 = icmp ult i64 %_0.i211, %_0.i169
  %x300 = zext i1 %_747 to i64
  %_0.i212 = add i64 %_0.i211, %_0.i195
  %_749 = icmp ult i64 %_0.i212, %_0.i195
  %x302 = zext i1 %_749 to i64
  %_0.i213 = add nuw nsw i64 %x302, %x300
  %_0.i214 = add i64 %_0.i213, %_0.i172
  %_752 = icmp ult i64 %_0.i214, %_0.i172
  %x305 = zext i1 %_752 to i64
  %_0.i215 = add i64 %_0.i214, %_0.i198
  %_754 = icmp ult i64 %_0.i215, %_0.i198
  %x307 = zext i1 %_754 to i64
  %_0.i216 = add nuw nsw i64 %x307, %x305
  %_0.i217 = add i64 %_0.i216, %_0.i175
  %_757 = icmp ult i64 %_0.i217, %_0.i175
  %x310 = zext i1 %_757 to i64
  %_0.i218 = add i64 %_0.i217, %_0.i201
  %_759 = icmp ult i64 %_0.i218, %_0.i201
  %x312 = zext i1 %_759 to i64
  %_0.i219 = add nuw nsw i64 %x312, %x310
  %_0.i220 = add i64 %_0.i219, %_0.i178
  %_762 = icmp ult i64 %_0.i220, %_0.i178
  %x315 = zext i1 %_762 to i64
  %_0.i221 = add i64 %_0.i220, %_0.i204
  %_764 = icmp ult i64 %_0.i221, %_0.i204
  %x317 = zext i1 %_764 to i64
  %_0.i222 = add i64 %_0.i206, %x186
  %_0.i179 = add i64 %_0.i222, %x252
  %_0.i180 = add i64 %_0.i179, %x254
  %_0.i223 = add i64 %_0.i180, %x315
  %_0.i224 = add i64 %_0.i223, %x317
  %_769 = icmp ult i64 %_0.i224, %_0.i206
  %x322 = zext i1 %_769 to i64
  %_0.i226 = mul i64 %_0.i207, -8506173809081122819
  %_0.i227 = mul i64 %_0.i207, 326064518108171314
  %_775 = zext i64 %_0.i226 to i128
  %_0.i228 = mul nuw nsw i128 %_775, 1873798617647539866
  %_773 = lshr i128 %_0.i228, 64
  %x326 = trunc i128 %_773 to i64
  %_0.i229 = mul i64 %_0.i207, 2995800253092329851
  %_0.i230 = mul nuw nsw i128 %_775, 5412103778470702295
  %_777 = lshr i128 %_0.i230, 64
  %x328 = trunc i128 %_777 to i64
  %_0.i231 = mul i64 %_0.i207, 3064711249896130499
  %_0.i232 = mul nuw nsw i128 %_775, 7239337960414712511
  %_781 = lshr i128 %_0.i232, 64
  %x330 = trunc i128 %_781 to i64
  %_0.i233 = mul i64 %_0.i207, 5532603552561700244
  %_0.i234 = mul nuw nsw i128 %_775, 7435674573564081700
  %_785 = lshr i128 %_0.i234, 64
  %x332 = trunc i128 %_785 to i64
  %_0.i235 = mul i64 %_0.i207, 436827220531937283
  %_0.i236 = mul nuw nsw i128 %_775, 2210141511517208575
  %_789 = lshr i128 %_0.i236, 64
  %x334 = trunc i128 %_789 to i64
  %_0.i238 = mul nuw i128 %_775, 13402431016077863595
  %_793 = lshr i128 %_0.i238, 64
  %x336 = trunc i128 %_793 to i64
  %_0.i239 = add i64 %_0.i235, %x336
  %_797 = icmp ult i64 %_0.i239, %x336
  %x338 = zext i1 %_797 to i64
  %_0.i240 = add i64 %_0.i233, %x334
  %_0.i241 = add i64 %_0.i240, %x338
  %_801 = icmp ult i64 %_0.i241, %_0.i233
  %x342 = zext i1 %_801 to i64
  %_0.i243 = add i64 %_0.i231, %x332
  %_0.i244 = add i64 %_0.i243, %x342
  %_806 = icmp ult i64 %_0.i244, %_0.i231
  %x347 = zext i1 %_806 to i64
  %_0.i246 = add i64 %_0.i229, %x330
  %_0.i247 = add i64 %_0.i246, %x347
  %_811 = icmp ult i64 %_0.i247, %_0.i229
  %x352 = zext i1 %_811 to i64
  %_0.i249 = add i64 %_0.i227, %x328
  %_0.i250 = add i64 %_0.i249, %x352
  %_816 = icmp ult i64 %_0.i250, %_0.i227
  %x357 = zext i1 %_816 to i64
  %_0.i252 = add nuw nsw i64 %x357, %x326
  %_820 = icmp ne i64 %_0.i207, 0
  %x361 = zext i1 %_820 to i64
  %_0.i254 = add i64 %_0.i209, %x361
  %_822 = icmp ult i64 %_0.i254, %_0.i209
  %x363 = zext i1 %_822 to i64
  %_0.i255 = add i64 %_0.i254, %_0.i239
  %_824 = icmp ult i64 %_0.i255, %_0.i239
  %x365 = zext i1 %_824 to i64
  %_0.i256 = add nuw nsw i64 %x365, %x363
  %_0.i257 = add i64 %_0.i256, %_0.i212
  %_827 = icmp ult i64 %_0.i257, %_0.i212
  %x368 = zext i1 %_827 to i64
  %_0.i258 = add i64 %_0.i257, %_0.i241
  %_829 = icmp ult i64 %_0.i258, %_0.i241
  %x370 = zext i1 %_829 to i64
  %_0.i259 = add nuw nsw i64 %x370, %x368
  %_0.i260 = add i64 %_0.i259, %_0.i215
  %_832 = icmp ult i64 %_0.i260, %_0.i215
  %x373 = zext i1 %_832 to i64
  %_0.i261 = add i64 %_0.i260, %_0.i244
  %_834 = icmp ult i64 %_0.i261, %_0.i244
  %x375 = zext i1 %_834 to i64
  %_0.i262 = add nuw nsw i64 %x375, %x373
  %_0.i263 = add i64 %_0.i262, %_0.i218
  %_837 = icmp ult i64 %_0.i263, %_0.i218
  %x378 = zext i1 %_837 to i64
  %_0.i264 = add i64 %_0.i263, %_0.i247
  %_839 = icmp ult i64 %_0.i264, %_0.i247
  %x380 = zext i1 %_839 to i64
  %_0.i265 = add nuw nsw i64 %x380, %x378
  %_0.i266 = add i64 %_0.i265, %_0.i221
  %_842 = icmp ult i64 %_0.i266, %_0.i221
  %x383 = zext i1 %_842 to i64
  %_0.i267 = add i64 %_0.i266, %_0.i250
  %_844 = icmp ult i64 %_0.i267, %_0.i250
  %x385 = zext i1 %_844 to i64
  %_0.i268 = add nuw nsw i64 %x385, %x383
  %_0.i269 = add i64 %_0.i268, %_0.i224
  %_847 = icmp ult i64 %_0.i269, %_0.i224
  %x388 = zext i1 %_847 to i64
  %_0.i270 = add i64 %_0.i269, %_0.i252
  %_849 = icmp ult i64 %_0.i270, %_0.i252
  %x390 = zext i1 %_849 to i64
  %_0.i273 = mul i64 %x11, %x3
  %_855 = zext i64 %x3 to i128
  %_0.i274 = mul nuw i128 %_391, %_855
  %_853 = lshr i128 %_0.i274, 64
  %x394 = trunc i128 %_853 to i64
  %_0.i275 = mul i64 %x10, %x3
  %_0.i276 = mul nuw i128 %_396, %_855
  %_858 = lshr i128 %_0.i276, 64
  %x396 = trunc i128 %_858 to i64
  %_0.i277 = mul i64 %x9, %x3
  %_0.i278 = mul nuw i128 %_401, %_855
  %_863 = lshr i128 %_0.i278, 64
  %x398 = trunc i128 %_863 to i64
  %_0.i279 = mul i64 %x8, %x3
  %_0.i280 = mul nuw i128 %_406, %_855
  %_868 = lshr i128 %_0.i280, 64
  %x400 = trunc i128 %_868 to i64
  %_0.i281 = mul i64 %x7, %x3
  %_0.i282 = mul nuw i128 %_411, %_855
  %_873 = lshr i128 %_0.i282, 64
  %x402 = trunc i128 %_873 to i64
  %_0.i283 = mul i64 %x6, %x3
  %_0.i284 = mul nuw i128 %_416, %_855
  %_878 = lshr i128 %_0.i284, 64
  %x404 = trunc i128 %_878 to i64
  %_0.i285 = add i64 %_0.i281, %x404
  %_883 = icmp ult i64 %_0.i285, %x404
  %x406 = zext i1 %_883 to i64
  %_0.i286 = add nuw i64 %x402, %x406
  %_0.i287 = add i64 %_0.i279, %_0.i286
  %_887 = icmp ult i64 %_0.i287, %_0.i279
  %x410 = zext i1 %_887 to i64
  %_0.i289 = add i64 %x410, %x400
  %_890 = icmp ult i64 %_0.i289, %x400
  %x413 = zext i1 %_890 to i64
  %_0.i290 = add i64 %_0.i277, %_0.i289
  %_892 = icmp ult i64 %_0.i290, %_0.i277
  %x415 = zext i1 %_892 to i64
  %_0.i291 = add nuw nsw i64 %x415, %x413
  %_0.i292 = add i64 %_0.i291, %x398
  %_895 = icmp ult i64 %_0.i292, %x398
  %x418 = zext i1 %_895 to i64
  %_0.i293 = add i64 %_0.i275, %_0.i292
  %_897 = icmp ult i64 %_0.i293, %_0.i275
  %x420 = zext i1 %_897 to i64
  %_0.i294 = add nuw nsw i64 %x420, %x418
  %_0.i295 = add i64 %_0.i294, %x396
  %_900 = icmp ult i64 %_0.i295, %x396
  %x423 = zext i1 %_900 to i64
  %_0.i296 = add i64 %_0.i295, %_0.i273
  %_902 = icmp ult i64 %_0.i296, %_0.i273
  %x425 = zext i1 %_902 to i64
  %_0.i297 = add nuw i64 %x423, %x394
  %_0.i298 = add i64 %_0.i297, %x425
  %_0.i299 = add i64 %_0.i255, %_0.i283
  %_906 = icmp ult i64 %_0.i299, %_0.i255
  %x429 = zext i1 %_906 to i64
  %_0.i300 = add i64 %_0.i258, %x429
  %_908 = icmp ult i64 %_0.i300, %_0.i258
  %x431 = zext i1 %_908 to i64
  %_0.i301 = add i64 %_0.i300, %_0.i285
  %_910 = icmp ult i64 %_0.i301, %_0.i285
  %x433 = zext i1 %_910 to i64
  %_0.i302 = add nuw nsw i64 %x433, %x431
  %_0.i303 = add i64 %_0.i302, %_0.i261
  %_913 = icmp ult i64 %_0.i303, %_0.i261
  %x436 = zext i1 %_913 to i64
  %_0.i304 = add i64 %_0.i303, %_0.i287
  %_915 = icmp ult i64 %_0.i304, %_0.i287
  %x438 = zext i1 %_915 to i64
  %_0.i305 = add nuw nsw i64 %x438, %x436
  %_0.i306 = add i64 %_0.i305, %_0.i264
  %_918 = icmp ult i64 %_0.i306, %_0.i264
  %x441 = zext i1 %_918 to i64
  %_0.i307 = add i64 %_0.i306, %_0.i290
  %_920 = icmp ult i64 %_0.i307, %_0.i290
  %x443 = zext i1 %_920 to i64
  %_0.i308 = add nuw nsw i64 %x443, %x441
  %_0.i309 = add i64 %_0.i308, %_0.i267
  %_923 = icmp ult i64 %_0.i309, %_0.i267
  %x446 = zext i1 %_923 to i64
  %_0.i310 = add i64 %_0.i309, %_0.i293
  %_925 = icmp ult i64 %_0.i310, %_0.i293
  %x448 = zext i1 %_925 to i64
  %_0.i311 = add nuw nsw i64 %x448, %x446
  %_0.i312 = add i64 %_0.i311, %_0.i270
  %_928 = icmp ult i64 %_0.i312, %_0.i270
  %x451 = zext i1 %_928 to i64
  %_0.i313 = add i64 %_0.i312, %_0.i296
  %_930 = icmp ult i64 %_0.i313, %_0.i296
  %x453 = zext i1 %_930 to i64
  %_0.i314 = add i64 %_0.i298, %x322
  %_0.i271 = add i64 %_0.i314, %x388
  %_0.i272 = add i64 %_0.i271, %x390
  %_0.i315 = add i64 %_0.i272, %x451
  %_0.i316 = add i64 %_0.i315, %x453
  %_935 = icmp ult i64 %_0.i316, %_0.i298
  %x458 = zext i1 %_935 to i64
  %_0.i318 = mul i64 %_0.i299, -8506173809081122819
  %_0.i319 = mul i64 %_0.i299, 326064518108171314
  %_941 = zext i64 %_0.i318 to i128
  %_0.i320 = mul nuw nsw i128 %_941, 1873798617647539866
  %_939 = lshr i128 %_0.i320, 64
  %x462 = trunc i128 %_939 to i64
  %_0.i321 = mul i64 %_0.i299, 2995800253092329851
  %_0.i322 = mul nuw nsw i128 %_941, 5412103778470702295
  %_943 = lshr i128 %_0.i322, 64
  %x464 = trunc i128 %_943 to i64
  %_0.i323 = mul i64 %_0.i299, 3064711249896130499
  %_0.i324 = mul nuw nsw i128 %_941, 7239337960414712511
  %_947 = lshr i128 %_0.i324, 64
  %x466 = trunc i128 %_947 to i64
  %_0.i325 = mul i64 %_0.i299, 5532603552561700244
  %_0.i326 = mul nuw nsw i128 %_941, 7435674573564081700
  %_951 = lshr i128 %_0.i326, 64
  %x468 = trunc i128 %_951 to i64
  %_0.i327 = mul i64 %_0.i299, 436827220531937283
  %_0.i328 = mul nuw nsw i128 %_941, 2210141511517208575
  %_955 = lshr i128 %_0.i328, 64
  %x470 = trunc i128 %_955 to i64
  %_0.i330 = mul nuw i128 %_941, 13402431016077863595
  %_959 = lshr i128 %_0.i330, 64
  %x472 = trunc i128 %_959 to i64
  %_0.i331 = add i64 %_0.i327, %x472
  %_963 = icmp ult i64 %_0.i331, %x472
  %x474 = zext i1 %_963 to i64
  %_0.i332 = add i64 %_0.i325, %x470
  %_0.i333 = add i64 %_0.i332, %x474
  %_967 = icmp ult i64 %_0.i333, %_0.i325
  %x478 = zext i1 %_967 to i64
  %_0.i335 = add i64 %_0.i323, %x468
  %_0.i336 = add i64 %_0.i335, %x478
  %_972 = icmp ult i64 %_0.i336, %_0.i323
  %x483 = zext i1 %_972 to i64
  %_0.i338 = add i64 %_0.i321, %x466
  %_0.i339 = add i64 %_0.i338, %x483
  %_977 = icmp ult i64 %_0.i339, %_0.i321
  %x488 = zext i1 %_977 to i64
  %_0.i341 = add i64 %_0.i319, %x464
  %_0.i342 = add i64 %_0.i341, %x488
  %_982 = icmp ult i64 %_0.i342, %_0.i319
  %x493 = zext i1 %_982 to i64
  %_0.i344 = add nuw nsw i64 %x493, %x462
  %_986 = icmp ne i64 %_0.i299, 0
  %x497 = zext i1 %_986 to i64
  %_0.i346 = add i64 %_0.i301, %x497
  %_988 = icmp ult i64 %_0.i346, %_0.i301
  %x499 = zext i1 %_988 to i64
  %_0.i347 = add i64 %_0.i346, %_0.i331
  %_990 = icmp ult i64 %_0.i347, %_0.i331
  %x501 = zext i1 %_990 to i64
  %_0.i348 = add nuw nsw i64 %x501, %x499
  %_0.i349 = add i64 %_0.i348, %_0.i304
  %_993 = icmp ult i64 %_0.i349, %_0.i304
  %x504 = zext i1 %_993 to i64
  %_0.i350 = add i64 %_0.i349, %_0.i333
  %_995 = icmp ult i64 %_0.i350, %_0.i333
  %x506 = zext i1 %_995 to i64
  %_0.i351 = add nuw nsw i64 %x506, %x504
  %_0.i352 = add i64 %_0.i351, %_0.i307
  %_998 = icmp ult i64 %_0.i352, %_0.i307
  %x509 = zext i1 %_998 to i64
  %_0.i353 = add i64 %_0.i352, %_0.i336
  %_1000 = icmp ult i64 %_0.i353, %_0.i336
  %x511 = zext i1 %_1000 to i64
  %_0.i354 = add nuw nsw i64 %x511, %x509
  %_0.i355 = add i64 %_0.i354, %_0.i310
  %_1003 = icmp ult i64 %_0.i355, %_0.i310
  %x514 = zext i1 %_1003 to i64
  %_0.i356 = add i64 %_0.i355, %_0.i339
  %_1005 = icmp ult i64 %_0.i356, %_0.i339
  %x516 = zext i1 %_1005 to i64
  %_0.i357 = add nuw nsw i64 %x516, %x514
  %_0.i358 = add i64 %_0.i357, %_0.i313
  %_1008 = icmp ult i64 %_0.i358, %_0.i313
  %x519 = zext i1 %_1008 to i64
  %_0.i359 = add i64 %_0.i358, %_0.i342
  %_1010 = icmp ult i64 %_0.i359, %_0.i342
  %x521 = zext i1 %_1010 to i64
  %_0.i360 = add nuw nsw i64 %x521, %x519
  %_0.i361 = add i64 %_0.i360, %_0.i316
  %_1013 = icmp ult i64 %_0.i361, %_0.i316
  %x524 = zext i1 %_1013 to i64
  %_0.i362 = add i64 %_0.i361, %_0.i344
  %_1015 = icmp ult i64 %_0.i362, %_0.i344
  %x526 = zext i1 %_1015 to i64
  %_0.i365 = mul i64 %x11, %x4
  %_1021 = zext i64 %x4 to i128
  %_0.i366 = mul nuw i128 %_391, %_1021
  %_1019 = lshr i128 %_0.i366, 64
  %x530 = trunc i128 %_1019 to i64
  %_0.i367 = mul i64 %x10, %x4
  %_0.i368 = mul nuw i128 %_396, %_1021
  %_1024 = lshr i128 %_0.i368, 64
  %x532 = trunc i128 %_1024 to i64
  %_0.i369 = mul i64 %x9, %x4
  %_0.i370 = mul nuw i128 %_401, %_1021
  %_1029 = lshr i128 %_0.i370, 64
  %x534 = trunc i128 %_1029 to i64
  %_0.i371 = mul i64 %x8, %x4
  %_0.i372 = mul nuw i128 %_406, %_1021
  %_1034 = lshr i128 %_0.i372, 64
  %x536 = trunc i128 %_1034 to i64
  %_0.i373 = mul i64 %x7, %x4
  %_0.i374 = mul nuw i128 %_411, %_1021
  %_1039 = lshr i128 %_0.i374, 64
  %x538 = trunc i128 %_1039 to i64
  %_0.i375 = mul i64 %x6, %x4
  %_0.i376 = mul nuw i128 %_416, %_1021
  %_1044 = lshr i128 %_0.i376, 64
  %x540 = trunc i128 %_1044 to i64
  %_0.i377 = add i64 %_0.i373, %x540
  %_1049 = icmp ult i64 %_0.i377, %x540
  %x542 = zext i1 %_1049 to i64
  %_0.i378 = add nuw i64 %x538, %x542
  %_0.i379 = add i64 %_0.i371, %_0.i378
  %_1053 = icmp ult i64 %_0.i379, %_0.i371
  %x546 = zext i1 %_1053 to i64
  %_0.i381 = add i64 %x546, %x536
  %_1056 = icmp ult i64 %_0.i381, %x536
  %x549 = zext i1 %_1056 to i64
  %_0.i382 = add i64 %_0.i369, %_0.i381
  %_1058 = icmp ult i64 %_0.i382, %_0.i369
  %x551 = zext i1 %_1058 to i64
  %_0.i383 = add nuw nsw i64 %x551, %x549
  %_0.i384 = add i64 %_0.i383, %x534
  %_1061 = icmp ult i64 %_0.i384, %x534
  %x554 = zext i1 %_1061 to i64
  %_0.i385 = add i64 %_0.i367, %_0.i384
  %_1063 = icmp ult i64 %_0.i385, %_0.i367
  %x556 = zext i1 %_1063 to i64
  %_0.i386 = add nuw nsw i64 %x556, %x554
  %_0.i387 = add i64 %_0.i386, %x532
  %_1066 = icmp ult i64 %_0.i387, %x532
  %x559 = zext i1 %_1066 to i64
  %_0.i388 = add i64 %_0.i387, %_0.i365
  %_1068 = icmp ult i64 %_0.i388, %_0.i365
  %x561 = zext i1 %_1068 to i64
  %_0.i389 = add nuw i64 %x559, %x530
  %_0.i390 = add i64 %_0.i389, %x561
  %_0.i391 = add i64 %_0.i347, %_0.i375
  %_1072 = icmp ult i64 %_0.i391, %_0.i347
  %x565 = zext i1 %_1072 to i64
  %_0.i392 = add i64 %_0.i350, %x565
  %_1074 = icmp ult i64 %_0.i392, %_0.i350
  %x567 = zext i1 %_1074 to i64
  %_0.i393 = add i64 %_0.i392, %_0.i377
  %_1076 = icmp ult i64 %_0.i393, %_0.i377
  %x569 = zext i1 %_1076 to i64
  %_0.i394 = add nuw nsw i64 %x569, %x567
  %_0.i395 = add i64 %_0.i394, %_0.i353
  %_1079 = icmp ult i64 %_0.i395, %_0.i353
  %x572 = zext i1 %_1079 to i64
  %_0.i396 = add i64 %_0.i395, %_0.i379
  %_1081 = icmp ult i64 %_0.i396, %_0.i379
  %x574 = zext i1 %_1081 to i64
  %_0.i397 = add nuw nsw i64 %x574, %x572
  %_0.i398 = add i64 %_0.i397, %_0.i356
  %_1084 = icmp ult i64 %_0.i398, %_0.i356
  %x577 = zext i1 %_1084 to i64
  %_0.i399 = add i64 %_0.i398, %_0.i382
  %_1086 = icmp ult i64 %_0.i399, %_0.i382
  %x579 = zext i1 %_1086 to i64
  %_0.i400 = add nuw nsw i64 %x579, %x577
  %_0.i401 = add i64 %_0.i400, %_0.i359
  %_1089 = icmp ult i64 %_0.i401, %_0.i359
  %x582 = zext i1 %_1089 to i64
  %_0.i402 = add i64 %_0.i401, %_0.i385
  %_1091 = icmp ult i64 %_0.i402, %_0.i385
  %x584 = zext i1 %_1091 to i64
  %_0.i403 = add nuw nsw i64 %x584, %x582
  %_0.i404 = add i64 %_0.i403, %_0.i362
  %_1094 = icmp ult i64 %_0.i404, %_0.i362
  %x587 = zext i1 %_1094 to i64
  %_0.i405 = add i64 %_0.i404, %_0.i388
  %_1096 = icmp ult i64 %_0.i405, %_0.i388
  %x589 = zext i1 %_1096 to i64
  %_0.i406 = add i64 %_0.i390, %x458
  %_0.i363 = add i64 %_0.i406, %x524
  %_0.i364 = add i64 %_0.i363, %x526
  %_0.i407 = add i64 %_0.i364, %x587
  %_0.i408 = add i64 %_0.i407, %x589
  %_1101 = icmp ult i64 %_0.i408, %_0.i390
  %x594 = zext i1 %_1101 to i64
  %_0.i410 = mul i64 %_0.i391, -8506173809081122819
  %_0.i411 = mul i64 %_0.i391, 326064518108171314
  %_1107 = zext i64 %_0.i410 to i128
  %_0.i412 = mul nuw nsw i128 %_1107, 1873798617647539866
  %_1105 = lshr i128 %_0.i412, 64
  %x598 = trunc i128 %_1105 to i64
  %_0.i413 = mul i64 %_0.i391, 2995800253092329851
  %_0.i414 = mul nuw nsw i128 %_1107, 5412103778470702295
  %_1109 = lshr i128 %_0.i414, 64
  %x600 = trunc i128 %_1109 to i64
  %_0.i415 = mul i64 %_0.i391, 3064711249896130499
  %_0.i416 = mul nuw nsw i128 %_1107, 7239337960414712511
  %_1113 = lshr i128 %_0.i416, 64
  %x602 = trunc i128 %_1113 to i64
  %_0.i417 = mul i64 %_0.i391, 5532603552561700244
  %_0.i418 = mul nuw nsw i128 %_1107, 7435674573564081700
  %_1117 = lshr i128 %_0.i418, 64
  %x604 = trunc i128 %_1117 to i64
  %_0.i419 = mul i64 %_0.i391, 436827220531937283
  %_0.i420 = mul nuw nsw i128 %_1107, 2210141511517208575
  %_1121 = lshr i128 %_0.i420, 64
  %x606 = trunc i128 %_1121 to i64
  %_0.i422 = mul nuw i128 %_1107, 13402431016077863595
  %_1125 = lshr i128 %_0.i422, 64
  %x608 = trunc i128 %_1125 to i64
  %_0.i423 = add i64 %_0.i419, %x608
  %_1129 = icmp ult i64 %_0.i423, %x608
  %x610 = zext i1 %_1129 to i64
  %_0.i424 = add i64 %_0.i417, %x606
  %_0.i425 = add i64 %_0.i424, %x610
  %_1133 = icmp ult i64 %_0.i425, %_0.i417
  %x614 = zext i1 %_1133 to i64
  %_0.i427 = add i64 %_0.i415, %x604
  %_0.i428 = add i64 %_0.i427, %x614
  %_1138 = icmp ult i64 %_0.i428, %_0.i415
  %x619 = zext i1 %_1138 to i64
  %_0.i430 = add i64 %_0.i413, %x602
  %_0.i431 = add i64 %_0.i430, %x619
  %_1143 = icmp ult i64 %_0.i431, %_0.i413
  %x624 = zext i1 %_1143 to i64
  %_0.i433 = add i64 %_0.i411, %x600
  %_0.i434 = add i64 %_0.i433, %x624
  %_1148 = icmp ult i64 %_0.i434, %_0.i411
  %x629 = zext i1 %_1148 to i64
  %_0.i436 = add nuw nsw i64 %x629, %x598
  %_1152 = icmp ne i64 %_0.i391, 0
  %x633 = zext i1 %_1152 to i64
  %_0.i438 = add i64 %_0.i393, %x633
  %_1154 = icmp ult i64 %_0.i438, %_0.i393
  %x635 = zext i1 %_1154 to i64
  %_0.i439 = add i64 %_0.i438, %_0.i423
  %_1156 = icmp ult i64 %_0.i439, %_0.i423
  %x637 = zext i1 %_1156 to i64
  %_0.i440 = add nuw nsw i64 %x637, %x635
  %_0.i441 = add i64 %_0.i440, %_0.i396
  %_1159 = icmp ult i64 %_0.i441, %_0.i396
  %x640 = zext i1 %_1159 to i64
  %_0.i442 = add i64 %_0.i441, %_0.i425
  %_1161 = icmp ult i64 %_0.i442, %_0.i425
  %x642 = zext i1 %_1161 to i64
  %_0.i443 = add nuw nsw i64 %x642, %x640
  %_0.i444 = add i64 %_0.i443, %_0.i399
  %_1164 = icmp ult i64 %_0.i444, %_0.i399
  %x645 = zext i1 %_1164 to i64
  %_0.i445 = add i64 %_0.i444, %_0.i428
  %_1166 = icmp ult i64 %_0.i445, %_0.i428
  %x647 = zext i1 %_1166 to i64
  %_0.i446 = add nuw nsw i64 %x647, %x645
  %_0.i447 = add i64 %_0.i446, %_0.i402
  %_1169 = icmp ult i64 %_0.i447, %_0.i402
  %x650 = zext i1 %_1169 to i64
  %_0.i448 = add i64 %_0.i447, %_0.i431
  %_1171 = icmp ult i64 %_0.i448, %_0.i431
  %x652 = zext i1 %_1171 to i64
  %_0.i449 = add nuw nsw i64 %x652, %x650
  %_0.i450 = add i64 %_0.i449, %_0.i405
  %_1174 = icmp ult i64 %_0.i450, %_0.i405
  %x655 = zext i1 %_1174 to i64
  %_0.i451 = add i64 %_0.i450, %_0.i434
  %_1176 = icmp ult i64 %_0.i451, %_0.i434
  %x657 = zext i1 %_1176 to i64
  %_0.i452 = add nuw nsw i64 %x657, %x655
  %_0.i453 = add i64 %_0.i452, %_0.i408
  %_1179 = icmp ult i64 %_0.i453, %_0.i408
  %x660 = zext i1 %_1179 to i64
  %_0.i454 = add i64 %_0.i453, %_0.i436
  %_1181 = icmp ult i64 %_0.i454, %_0.i436
  %x662 = zext i1 %_1181 to i64
  %_0.i457 = mul i64 %x11, %x5
  %_1187 = zext i64 %x5 to i128
  %_0.i458 = mul nuw i128 %_391, %_1187
  %_1185 = lshr i128 %_0.i458, 64
  %x666 = trunc i128 %_1185 to i64
  %_0.i459 = mul i64 %x10, %x5
  %_0.i460 = mul nuw i128 %_396, %_1187
  %_1190 = lshr i128 %_0.i460, 64
  %x668 = trunc i128 %_1190 to i64
  %_0.i461 = mul i64 %x9, %x5
  %_0.i462 = mul nuw i128 %_401, %_1187
  %_1195 = lshr i128 %_0.i462, 64
  %x670 = trunc i128 %_1195 to i64
  %_0.i463 = mul i64 %x8, %x5
  %_0.i464 = mul nuw i128 %_406, %_1187
  %_1200 = lshr i128 %_0.i464, 64
  %x672 = trunc i128 %_1200 to i64
  %_0.i465 = mul i64 %x7, %x5
  %_0.i466 = mul nuw i128 %_411, %_1187
  %_1205 = lshr i128 %_0.i466, 64
  %x674 = trunc i128 %_1205 to i64
  %_0.i467 = mul i64 %x6, %x5
  %_0.i468 = mul nuw i128 %_416, %_1187
  %_1210 = lshr i128 %_0.i468, 64
  %x676 = trunc i128 %_1210 to i64
  %_0.i469 = add i64 %_0.i465, %x676
  %_1215 = icmp ult i64 %_0.i469, %x676
  %x678 = zext i1 %_1215 to i64
  %_0.i470 = add nuw i64 %x674, %x678
  %_0.i471 = add i64 %_0.i463, %_0.i470
  %_1219 = icmp ult i64 %_0.i471, %_0.i463
  %x682 = zext i1 %_1219 to i64
  %_0.i473 = add i64 %x682, %x672
  %_1222 = icmp ult i64 %_0.i473, %x672
  %x685 = zext i1 %_1222 to i64
  %_0.i474 = add i64 %_0.i461, %_0.i473
  %_1224 = icmp ult i64 %_0.i474, %_0.i461
  %x687 = zext i1 %_1224 to i64
  %_0.i475 = add nuw nsw i64 %x687, %x685
  %_0.i476 = add i64 %_0.i475, %x670
  %_1227 = icmp ult i64 %_0.i476, %x670
  %x690 = zext i1 %_1227 to i64
  %_0.i477 = add i64 %_0.i459, %_0.i476
  %_1229 = icmp ult i64 %_0.i477, %_0.i459
  %x692 = zext i1 %_1229 to i64
  %_0.i478 = add nuw nsw i64 %x692, %x690
  %_0.i479 = add i64 %_0.i478, %x668
  %_1232 = icmp ult i64 %_0.i479, %x668
  %x695 = zext i1 %_1232 to i64
  %_0.i480 = add i64 %_0.i479, %_0.i457
  %_1234 = icmp ult i64 %_0.i480, %_0.i457
  %x697 = zext i1 %_1234 to i64
  %_0.i481 = add nuw i64 %x695, %x666
  %_0.i482 = add i64 %_0.i481, %x697
  %_0.i483 = add i64 %_0.i439, %_0.i467
  %_1238 = icmp ult i64 %_0.i483, %_0.i439
  %x701 = zext i1 %_1238 to i64
  %_0.i484 = add i64 %_0.i442, %x701
  %_1240 = icmp ult i64 %_0.i484, %_0.i442
  %x703 = zext i1 %_1240 to i64
  %_0.i485 = add i64 %_0.i484, %_0.i469
  %_1242 = icmp ult i64 %_0.i485, %_0.i469
  %x705 = zext i1 %_1242 to i64
  %_0.i486 = add nuw nsw i64 %x705, %x703
  %_0.i487 = add i64 %_0.i486, %_0.i445
  %_1245 = icmp ult i64 %_0.i487, %_0.i445
  %x708 = zext i1 %_1245 to i64
  %_0.i488 = add i64 %_0.i487, %_0.i471
  %_1247 = icmp ult i64 %_0.i488, %_0.i471
  %x710 = zext i1 %_1247 to i64
  %_0.i489 = add nuw nsw i64 %x710, %x708
  %_0.i490 = add i64 %_0.i489, %_0.i448
  %_1250 = icmp ult i64 %_0.i490, %_0.i448
  %x713 = zext i1 %_1250 to i64
  %_0.i491 = add i64 %_0.i490, %_0.i474
  %_1252 = icmp ult i64 %_0.i491, %_0.i474
  %x715 = zext i1 %_1252 to i64
  %_0.i492 = add nuw nsw i64 %x715, %x713
  %_0.i493 = add i64 %_0.i492, %_0.i451
  %_1255 = icmp ult i64 %_0.i493, %_0.i451
  %x718 = zext i1 %_1255 to i64
  %_0.i494 = add i64 %_0.i493, %_0.i477
  %_1257 = icmp ult i64 %_0.i494, %_0.i477
  %x720 = zext i1 %_1257 to i64
  %_0.i495 = add nuw nsw i64 %x720, %x718
  %_0.i496 = add i64 %_0.i495, %_0.i454
  %_1260 = icmp ult i64 %_0.i496, %_0.i454
  %x723 = zext i1 %_1260 to i64
  %_0.i497 = add i64 %_0.i496, %_0.i480
  %_1262 = icmp ult i64 %_0.i497, %_0.i480
  %x725 = zext i1 %_1262 to i64
  %_0.i498 = add i64 %_0.i482, %x594
  %_0.i455 = add i64 %_0.i498, %x660
  %_0.i456 = add i64 %_0.i455, %x662
  %_0.i499 = add i64 %_0.i456, %x723
  %_0.i500 = add i64 %_0.i499, %x725
  %_1267 = icmp ult i64 %_0.i500, %_0.i482
  %x730 = zext i1 %_1267 to i64
  %_0.i502 = mul i64 %_0.i483, -8506173809081122819
  %_0.i503 = mul i64 %_0.i483, 326064518108171314
  %_1273 = zext i64 %_0.i502 to i128
  %_0.i504 = mul nuw nsw i128 %_1273, 1873798617647539866
  %_1271 = lshr i128 %_0.i504, 64
  %x734 = trunc i128 %_1271 to i64
  %_0.i505 = mul i64 %_0.i483, 2995800253092329851
  %_0.i506 = mul nuw nsw i128 %_1273, 5412103778470702295
  %_1275 = lshr i128 %_0.i506, 64
  %x736 = trunc i128 %_1275 to i64
  %_0.i507 = mul i64 %_0.i483, 3064711249896130499
  %_0.i508 = mul nuw nsw i128 %_1273, 7239337960414712511
  %_1279 = lshr i128 %_0.i508, 64
  %x738 = trunc i128 %_1279 to i64
  %_0.i509 = mul i64 %_0.i483, 5532603552561700244
  %_0.i510 = mul nuw nsw i128 %_1273, 7435674573564081700
  %_1283 = lshr i128 %_0.i510, 64
  %x740 = trunc i128 %_1283 to i64
  %_0.i511 = mul i64 %_0.i483, 436827220531937283
  %_0.i512 = mul nuw nsw i128 %_1273, 2210141511517208575
  %_1287 = lshr i128 %_0.i512, 64
  %x742 = trunc i128 %_1287 to i64
  %_0.i514 = mul nuw i128 %_1273, 13402431016077863595
  %_1291 = lshr i128 %_0.i514, 64
  %x744 = trunc i128 %_1291 to i64
  %_0.i515 = add i64 %_0.i511, %x744
  %_1295 = icmp ult i64 %_0.i515, %x744
  %x746 = zext i1 %_1295 to i64
  %_0.i516 = add i64 %_0.i509, %x742
  %_0.i517 = add i64 %_0.i516, %x746
  %_1299 = icmp ult i64 %_0.i517, %_0.i509
  %x750 = zext i1 %_1299 to i64
  %_0.i519 = add i64 %_0.i507, %x740
  %_0.i520 = add i64 %_0.i519, %x750
  %_1304 = icmp ult i64 %_0.i520, %_0.i507
  %x755 = zext i1 %_1304 to i64
  %_0.i522 = add i64 %_0.i505, %x738
  %_0.i523 = add i64 %_0.i522, %x755
  %_1309 = icmp ult i64 %_0.i523, %_0.i505
  %x760 = zext i1 %_1309 to i64
  %_0.i525 = add i64 %_0.i503, %x736
  %_0.i526 = add i64 %_0.i525, %x760
  %_1314 = icmp ult i64 %_0.i526, %_0.i503
  %x765 = zext i1 %_1314 to i64
  %_0.i528 = add nuw nsw i64 %x765, %x734
  %_1318 = icmp ne i64 %_0.i483, 0
  %x769 = zext i1 %_1318 to i64
  %_0.i530 = add i64 %_0.i485, %x769
  %_1320 = icmp ult i64 %_0.i530, %_0.i485
  %x771 = zext i1 %_1320 to i64
  %_0.i531 = add i64 %_0.i530, %_0.i515
  %_1322 = icmp ult i64 %_0.i531, %_0.i515
  %x773 = zext i1 %_1322 to i64
  %_0.i532 = add nuw nsw i64 %x773, %x771
  %_0.i533 = add i64 %_0.i532, %_0.i488
  %_1325 = icmp ult i64 %_0.i533, %_0.i488
  %x776 = zext i1 %_1325 to i64
  %_0.i534 = add i64 %_0.i533, %_0.i517
  %_1327 = icmp ult i64 %_0.i534, %_0.i517
  %x778 = zext i1 %_1327 to i64
  %_0.i535 = add nuw nsw i64 %x778, %x776
  %_0.i536 = add i64 %_0.i535, %_0.i491
  %_1330 = icmp ult i64 %_0.i536, %_0.i491
  %x781 = zext i1 %_1330 to i64
  %_0.i537 = add i64 %_0.i536, %_0.i520
  %_1332 = icmp ult i64 %_0.i537, %_0.i520
  %x783 = zext i1 %_1332 to i64
  %_0.i538 = add nuw nsw i64 %x783, %x781
  %_0.i539 = add i64 %_0.i538, %_0.i494
  %_1335 = icmp ult i64 %_0.i539, %_0.i494
  %x786 = zext i1 %_1335 to i64
  %_0.i540 = add i64 %_0.i539, %_0.i523
  %_1337 = icmp ult i64 %_0.i540, %_0.i523
  %x788 = zext i1 %_1337 to i64
  %_0.i541 = add nuw nsw i64 %x788, %x786
  %_0.i542 = add i64 %_0.i541, %_0.i497
  %_1340 = icmp ult i64 %_0.i542, %_0.i497
  %x791 = zext i1 %_1340 to i64
  %_0.i543 = add i64 %_0.i542, %_0.i526
  %_1342 = icmp ult i64 %_0.i543, %_0.i526
  %x793 = zext i1 %_1342 to i64
  %_0.i544 = add nuw nsw i64 %x793, %x791
  %_0.i545 = add i64 %_0.i544, %_0.i500
  %_1345 = icmp ult i64 %_0.i545, %_0.i500
  %x796 = zext i1 %_1345 to i64
  %_0.i546 = add i64 %_0.i545, %_0.i528
  %_1347 = icmp ult i64 %_0.i546, %_0.i528
  %x798 = zext i1 %_1347 to i64
  %_0.i547 = add nuw nsw i64 %x796, %x730
  %_0.i548 = add nuw nsw i64 %_0.i547, %x798
  %_1351 = icmp ult i64 %_0.i531, -5044313057631688021
  %x802.neg = sext i1 %_1351 to i64
  %_0.i550 = add i64 %_0.i534, -2210141511517208575
  %_1353 = icmp ult i64 %_0.i534, 2210141511517208575
  %x804.neg = sext i1 %_1353 to i64
  %_0.i551 = add i64 %_0.i550, %x802.neg
  %_1355 = icmp ult i64 %_0.i550, %_0.i551
  %x806.neg = sext i1 %_1355 to i64
  %_0.i552.neg = add nsw i64 %x806.neg, %x804.neg
  %_0.i553 = add i64 %_0.i537, -7435674573564081700
  %_1358 = icmp ult i64 %_0.i537, 7435674573564081700
  %x809.neg = sext i1 %_1358 to i64
  %_0.i554 = add i64 %_0.i552.neg, %_0.i553
  %_1360 = icmp ult i64 %_0.i553, %_0.i554
  %x811.neg = sext i1 %_1360 to i64
  %_0.i555.neg = add nsw i64 %x811.neg, %x809.neg
  %_0.i556 = add i64 %_0.i540, -7239337960414712511
  %_1363 = icmp ult i64 %_0.i540, 7239337960414712511
  %x814.neg = sext i1 %_1363 to i64
  %_0.i557 = add i64 %_0.i555.neg, %_0.i556
  %_1365 = icmp ult i64 %_0.i556, %_0.i557
  %x816.neg = sext i1 %_1365 to i64
  %_0.i558.neg = add nsw i64 %x816.neg, %x814.neg
  %_0.i559 = add i64 %_0.i543, -5412103778470702295
  %_1368 = icmp ult i64 %_0.i543, 5412103778470702295
  %x819.neg = sext i1 %_1368 to i64
  %_0.i560 = add i64 %_0.i558.neg, %_0.i559
  %_1370 = icmp ult i64 %_0.i559, %_0.i560
  %x821.neg = sext i1 %_1370 to i64
  %_0.i561.neg = add nsw i64 %x821.neg, %x819.neg
  %_0.i562 = add i64 %_0.i546, -1873798617647539866
  %_1373 = icmp ult i64 %_0.i546, 1873798617647539866
  %x824.neg = sext i1 %_1373 to i64
  %_0.i563 = add i64 %_0.i561.neg, %_0.i562
  %_1375 = icmp ult i64 %_0.i562, %_0.i563
  %x826.neg = sext i1 %_1375 to i64
  %_0.i564.neg = add nsw i64 %x826.neg, %x824.neg
  %_0.i565 = add nsw i64 %_0.i564.neg, %_0.i548
  %_1378.not = icmp ult i64 %_0.i548, %_0.i565
  %_0.i566 = sext i1 %_1378.not to i64
  %_1387 = and i64 %_0.i534, %_0.i566
  %_1388 = select i1 %_1378.not, i64 0, i64 %_0.i551
  %x835 = or i64 %_1387, %_1388
  %_1392 = and i64 %_0.i537, %_0.i566
  %_1393 = select i1 %_1378.not, i64 0, i64 %_0.i554
  %x838 = or i64 %_1392, %_1393
  %_1397 = and i64 %_0.i540, %_0.i566
  %_1398 = select i1 %_1378.not, i64 0, i64 %_0.i557
  %x841 = or i64 %_1397, %_1398
  %_1402 = and i64 %_0.i543, %_0.i566
  %_1403 = select i1 %_1378.not, i64 0, i64 %_0.i560
  %x844 = or i64 %_1402, %_1403
  %_1410.not = icmp eq i64 %out0.1, 0
  br i1 %_1410.not, label %panic12, label %bb568, !prof !3

panic11:                                          ; preds = %bb11
; call core::panicking::panic_bounds_check
  tail call void @_ZN4core9panicking18panic_bounds_check17h6879eeb39abdf99dE(i64 noundef 5, i64 noundef 5, ptr noalias noundef nonnull readonly align 8 dereferenceable(24) @alloc_e7e3feff08307baee212ddc5ca323a79) #2
  unreachable

bb568:                                            ; preds = %bb12
  %_0.i549 = add i64 %_0.i531, 5044313057631688021
  %_1382 = and i64 %_0.i531, %_0.i566
  %_1383 = select i1 %_1378.not, i64 0, i64 %_0.i549
  %x832 = or i64 %_1382, %_1383
  store i64 %x832, ptr %out0.0, align 8
  %_1412.not = icmp eq i64 %out0.1, 1
  br i1 %_1412.not, label %panic13, label %bb569, !prof !3

panic12:                                          ; preds = %bb12
; call core::panicking::panic_bounds_check
  tail call void @_ZN4core9panicking18panic_bounds_check17h6879eeb39abdf99dE(i64 noundef 0, i64 noundef 0, ptr noalias noundef nonnull readonly align 8 dereferenceable(24) @alloc_54a0420761e120886671384eafca676e) #2
  unreachable

bb569:                                            ; preds = %bb568
  %10 = getelementptr inbounds [0 x i64], ptr %out0.0, i64 0, i64 1
  store i64 %x835, ptr %10, align 8
  %_1414 = icmp ugt i64 %out0.1, 2
  br i1 %_1414, label %bb570, label %panic14, !prof !5

panic13:                                          ; preds = %bb568
; call core::panicking::panic_bounds_check
  tail call void @_ZN4core9panicking18panic_bounds_check17h6879eeb39abdf99dE(i64 noundef 1, i64 noundef 1, ptr noalias noundef nonnull readonly align 8 dereferenceable(24) @alloc_e71d16686660edf0ac4635f24d7ef080) #2
  unreachable

bb570:                                            ; preds = %bb569
  %11 = getelementptr inbounds [0 x i64], ptr %out0.0, i64 0, i64 2
  store i64 %x838, ptr %11, align 8
  %_1416.not = icmp eq i64 %out0.1, 3
  br i1 %_1416.not, label %panic15, label %bb571, !prof !3

panic14:                                          ; preds = %bb569
; call core::panicking::panic_bounds_check
  tail call void @_ZN4core9panicking18panic_bounds_check17h6879eeb39abdf99dE(i64 noundef 2, i64 noundef 2, ptr noalias noundef nonnull readonly align 8 dereferenceable(24) @alloc_c4a1da9892a9328aeb0c7ce56c96cc0f) #2
  unreachable

bb571:                                            ; preds = %bb570
  %12 = getelementptr inbounds [0 x i64], ptr %out0.0, i64 0, i64 3
  store i64 %x841, ptr %12, align 8
  %_1418 = icmp ugt i64 %out0.1, 4
  br i1 %_1418, label %bb572, label %panic16, !prof !5

panic15:                                          ; preds = %bb570
; call core::panicking::panic_bounds_check
  tail call void @_ZN4core9panicking18panic_bounds_check17h6879eeb39abdf99dE(i64 noundef 3, i64 noundef 3, ptr noalias noundef nonnull readonly align 8 dereferenceable(24) @alloc_e4cb97ff5e3f19b11cae213b2805ff31) #2
  unreachable

bb572:                                            ; preds = %bb571
  %13 = getelementptr inbounds [0 x i64], ptr %out0.0, i64 0, i64 4
  store i64 %x844, ptr %13, align 8
  %_1420.not = icmp eq i64 %out0.1, 5
  br i1 %_1420.not, label %panic17, label %bb573, !prof !3

panic16:                                          ; preds = %bb571
; call core::panicking::panic_bounds_check
  tail call void @_ZN4core9panicking18panic_bounds_check17h6879eeb39abdf99dE(i64 noundef 4, i64 noundef 4, ptr noalias noundef nonnull readonly align 8 dereferenceable(24) @alloc_fe3a2b043de24dcbb1347ea6a56848d6) #2
  unreachable

bb573:                                            ; preds = %bb572
  %_1407 = and i64 %_0.i546, %_0.i566
  %_1408 = select i1 %_1378.not, i64 0, i64 %_0.i563
  %x847 = or i64 %_1407, %_1408
  %14 = getelementptr inbounds [0 x i64], ptr %out0.0, i64 0, i64 5
  store i64 %x847, ptr %14, align 8
  ret void

panic17:                                          ; preds = %bb572
; call core::panicking::panic_bounds_check
  tail call void @_ZN4core9panicking18panic_bounds_check17h6879eeb39abdf99dE(i64 noundef 5, i64 noundef 5, ptr noalias noundef nonnull readonly align 8 dereferenceable(24) @alloc_d960939cb83710d4cbb4de88fa25717c) #2
  unreachable
}

; core::panicking::panic_bounds_check
; Function Attrs: cold noinline noreturn nonlazybind uwtable
declare void @_ZN4core9panicking18panic_bounds_check17h6879eeb39abdf99dE(i64 noundef, i64 noundef, ptr noalias noundef readonly align 8 dereferenceable(24)) unnamed_addr #1

attributes #0 = { nonlazybind uwtable "probe-stack"="inline-asm" "target-cpu"="x86-64" }
attributes #1 = { cold noinline noreturn nonlazybind uwtable "probe-stack"="inline-asm" "target-cpu"="x86-64" }
attributes #2 = { noreturn }

!llvm.module.flags = !{!0, !1}
!llvm.ident = !{!2}

!0 = !{i32 8, !"PIC Level", i32 2}
!1 = !{i32 2, !"RtLibUseGOT", i32 1}
!2 = !{!"rustc version 1.75.0 (82e1608df 2023-12-21) (built from a source tarball)"}
!3 = !{!"branch_weights", i32 1, i32 2000}
!4 = !{}
!5 = !{!"branch_weights", i32 2000, i32 1}
