
demangled_bls12_mul.so:     file format elf64-x86-64


Disassembly of section .init:

0000000000001000 <_init>:
    1000:	f3 0f 1e fa          	endbr64 
    1004:	48 83 ec 08          	sub    $0x8,%rsp
    1008:	48 8b 05 e9 3f 00 00 	mov    0x3fe9(%rip),%rax        # 4ff8 <__gmon_start__>
    100f:	48 85 c0             	test   %rax,%rax
    1012:	74 02                	je     1016 <_init+0x16>
    1014:	ff d0                	call   *%rax
    1016:	48 83 c4 08          	add    $0x8,%rsp
    101a:	c3                   	ret    

Disassembly of section .plt:

0000000000001020 <.plt>:
    1020:	ff 35 e2 3f 00 00    	push   0x3fe2(%rip)        # 5008 <_GLOBAL_OFFSET_TABLE_+0x8>
    1026:	ff 25 e4 3f 00 00    	jmp    *0x3fe4(%rip)        # 5010 <_GLOBAL_OFFSET_TABLE_+0x10>
    102c:	0f 1f 40 00          	nopl   0x0(%rax)

Disassembly of section .plt.got:

0000000000001030 <__cxa_finalize@plt>:
    1030:	ff 25 aa 3f 00 00    	jmp    *0x3faa(%rip)        # 4fe0 <__cxa_finalize>
    1036:	66 90                	xchg   %ax,%ax

Disassembly of section .text:

0000000000001040 <deregister_tm_clones>:
    1040:	48 8d 3d d9 3f 00 00 	lea    0x3fd9(%rip),%rdi        # 5020 <completed.0>
    1047:	48 8d 05 d2 3f 00 00 	lea    0x3fd2(%rip),%rax        # 5020 <completed.0>
    104e:	48 39 f8             	cmp    %rdi,%rax
    1051:	74 15                	je     1068 <deregister_tm_clones+0x28>
    1053:	48 8b 05 96 3f 00 00 	mov    0x3f96(%rip),%rax        # 4ff0 <_ITM_deregisterTMCloneTable>
    105a:	48 85 c0             	test   %rax,%rax
    105d:	74 09                	je     1068 <deregister_tm_clones+0x28>
    105f:	ff e0                	jmp    *%rax
    1061:	0f 1f 80 00 00 00 00 	nopl   0x0(%rax)
    1068:	c3                   	ret    
    1069:	0f 1f 80 00 00 00 00 	nopl   0x0(%rax)

0000000000001070 <register_tm_clones>:
    1070:	48 8d 3d a9 3f 00 00 	lea    0x3fa9(%rip),%rdi        # 5020 <completed.0>
    1077:	48 8d 35 a2 3f 00 00 	lea    0x3fa2(%rip),%rsi        # 5020 <completed.0>
    107e:	48 29 fe             	sub    %rdi,%rsi
    1081:	48 89 f0             	mov    %rsi,%rax
    1084:	48 c1 ee 3f          	shr    $0x3f,%rsi
    1088:	48 c1 f8 03          	sar    $0x3,%rax
    108c:	48 01 c6             	add    %rax,%rsi
    108f:	48 d1 fe             	sar    %rsi
    1092:	74 14                	je     10a8 <register_tm_clones+0x38>
    1094:	48 8b 05 4d 3f 00 00 	mov    0x3f4d(%rip),%rax        # 4fe8 <_ITM_registerTMCloneTable>
    109b:	48 85 c0             	test   %rax,%rax
    109e:	74 08                	je     10a8 <register_tm_clones+0x38>
    10a0:	ff e0                	jmp    *%rax
    10a2:	66 0f 1f 44 00 00    	nopw   0x0(%rax,%rax,1)
    10a8:	c3                   	ret    
    10a9:	0f 1f 80 00 00 00 00 	nopl   0x0(%rax)

00000000000010b0 <__do_global_dtors_aux>:
    10b0:	f3 0f 1e fa          	endbr64 
    10b4:	80 3d 65 3f 00 00 00 	cmpb   $0x0,0x3f65(%rip)        # 5020 <completed.0>
    10bb:	75 2b                	jne    10e8 <__do_global_dtors_aux+0x38>
    10bd:	55                   	push   %rbp
    10be:	48 83 3d 1a 3f 00 00 	cmpq   $0x0,0x3f1a(%rip)        # 4fe0 <__cxa_finalize>
    10c5:	00 
    10c6:	48 89 e5             	mov    %rsp,%rbp
    10c9:	74 0c                	je     10d7 <__do_global_dtors_aux+0x27>
    10cb:	48 8b 3d 46 3f 00 00 	mov    0x3f46(%rip),%rdi        # 5018 <__dso_handle>
    10d2:	e8 59 ff ff ff       	call   1030 <__cxa_finalize@plt>
    10d7:	e8 64 ff ff ff       	call   1040 <deregister_tm_clones>
    10dc:	c6 05 3d 3f 00 00 01 	movb   $0x1,0x3f3d(%rip)        # 5020 <completed.0>
    10e3:	5d                   	pop    %rbp
    10e4:	c3                   	ret    
    10e5:	0f 1f 00             	nopl   (%rax)
    10e8:	c3                   	ret    
    10e9:	0f 1f 80 00 00 00 00 	nopl   0x0(%rax)

00000000000010f0 <frame_dummy>:
    10f0:	f3 0f 1e fa          	endbr64 
    10f4:	e9 77 ff ff ff       	jmp    1070 <register_tm_clones>
    10f9:	0f 1f 80 00 00 00 00 	nopl   0x0(%rax)

0000000000001100 <bls12_mul>:
    1100:	55                   	push   %rbp
    1101:	41 57                	push   %r15
    1103:	41 56                	push   %r14
    1105:	41 55                	push   %r13
    1107:	41 54                	push   %r12
    1109:	53                   	push   %rbx
    110a:	48 81 ec 40 01 00 00 	sub    $0x140,%rsp
    1111:	48 89 54 24 10       	mov    %rdx,0x10(%rsp)
    1116:	48 89 bc 24 38 01 00 	mov    %rdi,0x138(%rsp)
    111d:	00 
    111e:	4c 8b 22             	mov    (%rdx),%r12
    1121:	4c 89 44 24 98       	mov    %r8,-0x68(%rsp)
    1126:	49 8b 28             	mov    (%r8),%rbp
    1129:	49 8b 70 08          	mov    0x8(%r8),%rsi
    112d:	49 8b 40 10          	mov    0x10(%r8),%rax
    1131:	48 89 44 24 e0       	mov    %rax,-0x20(%rsp)
    1136:	49 89 c0             	mov    %rax,%r8
    1139:	4d 0f af c4          	imul   %r12,%r8
    113d:	49 89 f2             	mov    %rsi,%r10
    1140:	48 89 74 24 30       	mov    %rsi,0x30(%rsp)
    1145:	4d 0f af d4          	imul   %r12,%r10
    1149:	49 89 eb             	mov    %rbp,%r11
    114c:	48 89 2c 24          	mov    %rbp,(%rsp)
    1150:	4d 0f af dc          	imul   %r12,%r11
    1154:	48 b8 fd ff fc ff fc 	movabs $0x89f3fffcfffcfffd,%rax
    115b:	ff f3 89 
    115e:	4d 89 dd             	mov    %r11,%r13
    1161:	4c 0f af e8          	imul   %rax,%r13
    1165:	48 b8 94 1d 81 39 9e 	movabs $0x4cc7c19e39811d94,%rax
    116c:	c1 c7 4c 
    116f:	4d 89 d9             	mov    %r11,%r9
    1172:	4c 0f af c8          	imul   %rax,%r9
    1176:	48 b8 03 00 07 ec 0a 	movabs $0x60fec0aec070003,%rax
    117d:	ec 0f 06 
    1180:	4c 89 db             	mov    %r11,%rbx
    1183:	48 0f af d8          	imul   %rax,%rbx
    1187:	48 89 f0             	mov    %rsi,%rax
    118a:	49 f7 e4             	mul    %r12
    118d:	48 89 d6             	mov    %rdx,%rsi
    1190:	48 89 e8             	mov    %rbp,%rax
    1193:	49 f7 e4             	mul    %r12
    1196:	48 89 d5             	mov    %rdx,%rbp
    1199:	48 ba ff ff 53 b1 fe 	movabs $0x1eabfffeb153ffff,%rdx
    11a0:	ff ab 1e 
    11a3:	4c 89 e8             	mov    %r13,%rax
    11a6:	48 f7 e2             	mul    %rdx
    11a9:	49 89 d6             	mov    %rdx,%r14
    11ac:	48 ba ab aa ff ff ff 	movabs $0xb9feffffffffaaab,%rdx
    11b3:	ff fe b9 
    11b6:	4c 89 e8             	mov    %r13,%rax
    11b9:	4c 89 6c 24 d8       	mov    %r13,-0x28(%rsp)
    11be:	48 f7 e2             	mul    %rdx
    11c1:	49 89 d7             	mov    %rdx,%r15
    11c4:	49 01 df             	add    %rbx,%r15
    11c7:	4d 11 ce             	adc    %r9,%r14
    11ca:	31 c0                	xor    %eax,%eax
    11cc:	4d 85 db             	test   %r11,%r11
    11cf:	4c 89 5c 24 a0       	mov    %r11,-0x60(%rsp)
    11d4:	0f 95 c0             	setne  %al
    11d7:	4c 01 d5             	add    %r10,%rbp
    11da:	4c 11 c6             	adc    %r8,%rsi
    11dd:	40 0f 92 c7          	setb   %dil
    11e1:	48 8d 54 05 00       	lea    0x0(%rbp,%rax,1),%rdx
    11e6:	31 db                	xor    %ebx,%ebx
    11e8:	49 01 d7             	add    %rdx,%r15
    11eb:	0f 92 c3             	setb   %bl
    11ee:	48 01 c5             	add    %rax,%rbp
    11f1:	48 11 f3             	adc    %rsi,%rbx
    11f4:	0f 92 c1             	setb   %cl
    11f7:	4c 8b 54 24 98       	mov    -0x68(%rsp),%r10
    11fc:	49 8b 72 18          	mov    0x18(%r10),%rsi
    1200:	48 89 74 24 28       	mov    %rsi,0x28(%rsp)
    1205:	49 0f af f4          	imul   %r12,%rsi
    1209:	48 8b 6c 24 e0       	mov    -0x20(%rsp),%rbp
    120e:	48 89 e8             	mov    %rbp,%rax
    1211:	49 f7 e4             	mul    %r12
    1214:	40 80 c7 ff          	add    $0xff,%dil
    1218:	48 11 f2             	adc    %rsi,%rdx
    121b:	0f 92 44 24 b8       	setb   -0x48(%rsp)
    1220:	31 f6                	xor    %esi,%esi
    1222:	4c 01 f3             	add    %r14,%rbx
    1225:	40 0f 92 c6          	setb   %sil
    1229:	80 c1 ff             	add    $0xff,%cl
    122c:	48 11 d6             	adc    %rdx,%rsi
    122f:	0f 92 44 24 a8       	setb   -0x58(%rsp)
    1234:	48 b8 c3 c7 33 ed a4 	movabs $0x2a880aa4ed33c7c3,%rax
    123b:	0a 88 2a 
    123e:	4c 0f af d8          	imul   %rax,%r11
    1242:	4c 89 5c 24 20       	mov    %r11,0x20(%rsp)
    1247:	48 b9 24 f6 b0 f6 a0 	movabs $0x6730d2a0f6b0f624,%rcx
    124e:	d2 30 67 
    1251:	4c 89 e8             	mov    %r13,%rax
    1254:	48 f7 e1             	mul    %rcx
    1257:	4c 01 da             	add    %r11,%rdx
    125a:	4d 39 ce             	cmp    %r9,%r14
    125d:	48 83 d2 00          	adc    $0x0,%rdx
    1261:	49 89 d3             	mov    %rdx,%r11
    1264:	48 8b 44 24 10       	mov    0x10(%rsp),%rax
    1269:	48 8b 48 08          	mov    0x8(%rax),%rcx
    126d:	48 89 4c 24 f8       	mov    %rcx,-0x8(%rsp)
    1272:	49 89 e9             	mov    %rbp,%r9
    1275:	4c 0f af c9          	imul   %rcx,%r9
    1279:	48 8b 44 24 30       	mov    0x30(%rsp),%rax
    127e:	48 89 c7             	mov    %rax,%rdi
    1281:	48 0f af f9          	imul   %rcx,%rdi
    1285:	4c 8b 2c 24          	mov    (%rsp),%r13
    1289:	4c 89 ed             	mov    %r13,%rbp
    128c:	48 0f af e9          	imul   %rcx,%rbp
    1290:	48 f7 e1             	mul    %rcx
    1293:	49 89 d0             	mov    %rdx,%r8
    1296:	4c 89 e8             	mov    %r13,%rax
    1299:	48 f7 e1             	mul    %rcx
    129c:	48 01 fa             	add    %rdi,%rdx
    129f:	4d 11 c8             	adc    %r9,%r8
    12a2:	0f 92 44 24 68       	setb   0x68(%rsp)
    12a7:	4c 89 f8             	mov    %r15,%rax
    12aa:	48 01 e8             	add    %rbp,%rax
    12ad:	48 89 d7             	mov    %rdx,%rdi
    12b0:	48 11 df             	adc    %rbx,%rdi
    12b3:	4c 01 fd             	add    %r15,%rbp
    12b6:	48 11 da             	adc    %rbx,%rdx
    12b9:	0f 92 c1             	setb   %cl
    12bc:	4c 89 5c 24 f0       	mov    %r11,-0x10(%rsp)
    12c1:	4e 8d 0c 1e          	lea    (%rsi,%r11,1),%r9
    12c5:	4d 11 c1             	adc    %r8,%r9
    12c8:	49 8b 5a 20          	mov    0x20(%r10),%rbx
    12cc:	48 89 5c 24 08       	mov    %rbx,0x8(%rsp)
    12d1:	4c 89 64 24 50       	mov    %r12,0x50(%rsp)
    12d6:	49 0f af dc          	imul   %r12,%rbx
    12da:	4c 8b 54 24 28       	mov    0x28(%rsp),%r10
    12df:	4c 89 d0             	mov    %r10,%rax
    12e2:	49 f7 e4             	mul    %r12
    12e5:	49 89 d7             	mov    %rdx,%r15
    12e8:	80 44 24 b8 ff       	addb   $0xff,-0x48(%rsp)
    12ed:	49 11 df             	adc    %rbx,%r15
    12f0:	0f 92 44 24 60       	setb   0x60(%rsp)
    12f5:	45 31 f6             	xor    %r14d,%r14d
    12f8:	4c 01 de             	add    %r11,%rsi
    12fb:	41 0f 92 c6          	setb   %r14b
    12ff:	80 c1 ff             	add    $0xff,%cl
    1302:	4c 11 c6             	adc    %r8,%rsi
    1305:	0f 92 44 24 c8       	setb   -0x38(%rsp)
    130a:	0f 92 44 24 87       	setb   -0x79(%rsp)
    130f:	48 89 e9             	mov    %rbp,%rcx
    1312:	48 b8 fd ff fc ff fc 	movabs $0x89f3fffcfffcfffd,%rax
    1319:	ff f3 89 
    131c:	48 0f af e8          	imul   %rax,%rbp
    1320:	48 89 6c 24 b8       	mov    %rbp,-0x48(%rsp)
    1325:	48 89 ca             	mov    %rcx,%rdx
    1328:	48 b8 94 1d 81 39 9e 	movabs $0x4cc7c19e39811d94,%rax
    132f:	c1 c7 4c 
    1332:	48 0f af d0          	imul   %rax,%rdx
    1336:	49 89 d0             	mov    %rdx,%r8
    1339:	48 89 54 24 48       	mov    %rdx,0x48(%rsp)
    133e:	48 89 ce             	mov    %rcx,%rsi
    1341:	48 89 4c 24 88       	mov    %rcx,-0x78(%rsp)
    1346:	48 b8 03 00 07 ec 0a 	movabs $0x60fec0aec070003,%rax
    134d:	ec 0f 06 
    1350:	48 0f af f0          	imul   %rax,%rsi
    1354:	48 89 e8             	mov    %rbp,%rax
    1357:	48 ba ff ff 53 b1 fe 	movabs $0x1eabfffeb153ffff,%rdx
    135e:	ff ab 1e 
    1361:	48 f7 e2             	mul    %rdx
    1364:	49 89 d4             	mov    %rdx,%r12
    1367:	48 89 e8             	mov    %rbp,%rax
    136a:	48 ba ab aa ff ff ff 	movabs $0xb9feffffffffaaab,%rdx
    1371:	ff fe b9 
    1374:	48 f7 e2             	mul    %rdx
    1377:	48 89 d5             	mov    %rdx,%rbp
    137a:	48 01 f5             	add    %rsi,%rbp
    137d:	4d 11 c4             	adc    %r8,%r12
    1380:	31 c0                	xor    %eax,%eax
    1382:	48 85 c9             	test   %rcx,%rcx
    1385:	0f 95 c0             	setne  %al
    1388:	48 8d 14 07          	lea    (%rdi,%rax,1),%rdx
    138c:	31 f6                	xor    %esi,%esi
    138e:	48 01 d5             	add    %rdx,%rbp
    1391:	40 0f 92 c6          	setb   %sil
    1395:	48 01 c7             	add    %rax,%rdi
    1398:	4c 11 ce             	adc    %r9,%rsi
    139b:	0f 92 44 24 e8       	setb   -0x18(%rsp)
    13a0:	31 c0                	xor    %eax,%eax
    13a2:	4c 01 e6             	add    %r12,%rsi
    13a5:	0f 92 c0             	setb   %al
    13a8:	48 89 44 24 90       	mov    %rax,-0x70(%rsp)
    13ad:	48 8b 44 24 10       	mov    0x10(%rsp),%rax
    13b2:	48 8b 58 10          	mov    0x10(%rax),%rbx
    13b6:	4c 8b 44 24 30       	mov    0x30(%rsp),%r8
    13bb:	4c 89 c7             	mov    %r8,%rdi
    13be:	48 0f af fb          	imul   %rbx,%rdi
    13c2:	4c 89 e8             	mov    %r13,%rax
    13c5:	4d 89 eb             	mov    %r13,%r11
    13c8:	4c 0f af db          	imul   %rbx,%r11
    13cc:	48 f7 e3             	mul    %rbx
    13cf:	49 89 d5             	mov    %rdx,%r13
    13d2:	48 89 e8             	mov    %rbp,%rax
    13d5:	4c 01 d8             	add    %r11,%rax
    13d8:	48 8d 04 17          	lea    (%rdi,%rdx,1),%rax
    13dc:	48 89 c1             	mov    %rax,%rcx
    13df:	48 11 f1             	adc    %rsi,%rcx
    13e2:	48 89 4c 24 58       	mov    %rcx,0x58(%rsp)
    13e7:	49 01 eb             	add    %rbp,%r11
    13ea:	48 11 c6             	adc    %rax,%rsi
    13ed:	0f 92 44 24 b0       	setb   -0x50(%rsp)
    13f2:	4d 89 d1             	mov    %r10,%r9
    13f5:	4c 89 d6             	mov    %r10,%rsi
    13f8:	48 0f af f3          	imul   %rbx,%rsi
    13fc:	4c 8b 54 24 e0       	mov    -0x20(%rsp),%r10
    1401:	4c 89 d5             	mov    %r10,%rbp
    1404:	48 0f af eb          	imul   %rbx,%rbp
    1408:	4c 89 d0             	mov    %r10,%rax
    140b:	48 f7 e3             	mul    %rbx
    140e:	48 89 d9             	mov    %rbx,%rcx
    1411:	48 89 9c 24 f8 00 00 	mov    %rbx,0xf8(%rsp)
    1418:	00 
    1419:	48 89 d3             	mov    %rdx,%rbx
    141c:	4c 89 c0             	mov    %r8,%rax
    141f:	48 f7 e1             	mul    %rcx
    1422:	4c 01 ef             	add    %r13,%rdi
    1425:	48 11 ea             	adc    %rbp,%rdx
    1428:	48 89 d5             	mov    %rdx,%rbp
    142b:	48 89 94 24 f0 00 00 	mov    %rdx,0xf0(%rsp)
    1432:	00 
    1433:	48 11 f3             	adc    %rsi,%rbx
    1436:	48 89 5c 24 c0       	mov    %rbx,-0x40(%rsp)
    143b:	0f 92 44 24 18       	setb   0x18(%rsp)
    1440:	80 44 24 a8 ff       	addb   $0xff,-0x58(%rsp)
    1445:	4d 11 fe             	adc    %r15,%r14
    1448:	0f 92 44 24 38       	setb   0x38(%rsp)
    144d:	4c 8b 7c 24 08       	mov    0x8(%rsp),%r15
    1452:	4d 89 fd             	mov    %r15,%r13
    1455:	48 8b 74 24 f8       	mov    -0x8(%rsp),%rsi
    145a:	4c 0f af ee          	imul   %rsi,%r13
    145e:	4c 89 cf             	mov    %r9,%rdi
    1461:	48 0f af fe          	imul   %rsi,%rdi
    1465:	4c 89 c8             	mov    %r9,%rax
    1468:	48 f7 e6             	mul    %rsi
    146b:	48 89 d1             	mov    %rdx,%rcx
    146e:	4c 89 d0             	mov    %r10,%rax
    1471:	48 f7 e6             	mul    %rsi
    1474:	80 44 24 68 ff       	addb   $0xff,0x68(%rsp)
    1479:	48 11 fa             	adc    %rdi,%rdx
    147c:	48 89 d6             	mov    %rdx,%rsi
    147f:	48 89 94 24 e8 00 00 	mov    %rdx,0xe8(%rsp)
    1486:	00 
    1487:	4c 11 e9             	adc    %r13,%rcx
    148a:	48 89 4c 24 a8       	mov    %rcx,-0x58(%rsp)
    148f:	0f 92 44 24 68       	setb   0x68(%rsp)
    1494:	48 b8 7b f9 97 2f 75 	movabs $0x299338752f97f97b,%rax
    149b:	38 93 29 
    149e:	48 8b 4c 24 a0       	mov    -0x60(%rsp),%rcx
    14a3:	48 0f af c8          	imul   %rax,%rcx
    14a7:	48 89 8c 24 e0 00 00 	mov    %rcx,0xe0(%rsp)
    14ae:	00 
    14af:	48 ba bf 12 85 f3 84 	movabs $0x64774b84f38512bf,%rdx
    14b6:	4b 77 64 
    14b9:	48 8b 44 24 d8       	mov    -0x28(%rsp),%rax
    14be:	48 f7 e2             	mul    %rdx
    14c1:	48 89 d3             	mov    %rdx,%rbx
    14c4:	48 01 cb             	add    %rcx,%rbx
    14c7:	48 8b 44 24 f0       	mov    -0x10(%rsp),%rax
    14cc:	48 3b 44 24 20       	cmp    0x20(%rsp),%rax
    14d1:	48 83 d3 00          	adc    $0x0,%rbx
    14d5:	45 31 c9             	xor    %r9d,%r9d
    14d8:	49 01 de             	add    %rbx,%r14
    14db:	4c 89 74 24 40       	mov    %r14,0x40(%rsp)
    14e0:	41 0f 92 c1          	setb   %r9b
    14e4:	80 44 24 87 ff       	addb   $0xff,-0x79(%rsp)
    14e9:	48 89 f0             	mov    %rsi,%rax
    14ec:	4c 11 f0             	adc    %r14,%rax
    14ef:	80 44 24 e8 ff       	addb   $0xff,-0x18(%rsp)
    14f4:	4c 8b 6c 24 90       	mov    -0x70(%rsp),%r13
    14f9:	49 11 c5             	adc    %rax,%r13
    14fc:	0f 92 44 24 f0       	setb   -0x10(%rsp)
    1501:	48 8b 4c 24 88       	mov    -0x78(%rsp),%rcx
    1506:	48 b8 c3 c7 33 ed a4 	movabs $0x2a880aa4ed33c7c3,%rax
    150d:	0a 88 2a 
    1510:	48 0f af c8          	imul   %rax,%rcx
    1514:	48 89 4c 24 e8       	mov    %rcx,-0x18(%rsp)
    1519:	48 8b 44 24 b8       	mov    -0x48(%rsp),%rax
    151e:	48 ba 24 f6 b0 f6 a0 	movabs $0x6730d2a0f6b0f624,%rdx
    1525:	d2 30 67 
    1528:	48 f7 e2             	mul    %rdx
    152b:	49 89 d0             	mov    %rdx,%r8
    152e:	49 01 c8             	add    %rcx,%r8
    1531:	4c 3b 64 24 48       	cmp    0x48(%rsp),%r12
    1536:	49 83 d0 00          	adc    $0x0,%r8
    153a:	8a 44 24 b0          	mov    -0x50(%rsp),%al
    153e:	04 ff                	add    $0xff,%al
    1540:	4f 8d 54 05 00       	lea    0x0(%r13,%r8,1),%r10
    1545:	49 11 ea             	adc    %rbp,%r10
    1548:	4c 89 f8             	mov    %r15,%rax
    154b:	48 8b 6c 24 50       	mov    0x50(%rsp),%rbp
    1550:	48 f7 e5             	mul    %rbp
    1553:	48 89 d7             	mov    %rdx,%rdi
    1556:	8a 4c 24 60          	mov    0x60(%rsp),%cl
    155a:	89 c8                	mov    %ecx,%eax
    155c:	04 ff                	add    $0xff,%al
    155e:	48 89 d0             	mov    %rdx,%rax
    1561:	48 83 d0 00          	adc    $0x0,%rax
    1565:	48 8b 44 24 98       	mov    -0x68(%rsp),%rax
    156a:	48 8b 40 28          	mov    0x28(%rax),%rax
    156e:	48 89 44 24 20       	mov    %rax,0x20(%rsp)
    1573:	41 0f 92 c7          	setb   %r15b
    1577:	48 89 c6             	mov    %rax,%rsi
    157a:	48 0f af f5          	imul   %rbp,%rsi
    157e:	48 f7 e5             	mul    %rbp
    1581:	80 c1 ff             	add    $0xff,%cl
    1584:	48 11 fe             	adc    %rdi,%rsi
    1587:	41 0f b6 c7          	movzbl %r15b,%eax
    158b:	48 11 d0             	adc    %rdx,%rax
    158e:	48 89 44 24 50       	mov    %rax,0x50(%rsp)
    1593:	80 44 24 38 ff       	addb   $0xff,0x38(%rsp)
    1598:	49 11 f1             	adc    %rsi,%r9
    159b:	0f 92 44 24 87       	setb   -0x79(%rsp)
    15a0:	31 ff                	xor    %edi,%edi
    15a2:	4d 01 c5             	add    %r8,%r13
    15a5:	4c 89 6c 24 90       	mov    %r13,-0x70(%rsp)
    15aa:	40 0f 92 c7          	setb   %dil
    15ae:	4c 89 dd             	mov    %r11,%rbp
    15b1:	48 b8 fd ff fc ff fc 	movabs $0x89f3fffcfffcfffd,%rax
    15b8:	ff f3 89 
    15bb:	48 0f af e8          	imul   %rax,%rbp
    15bf:	48 89 6c 24 98       	mov    %rbp,-0x68(%rsp)
    15c4:	4d 89 dd             	mov    %r11,%r13
    15c7:	48 b8 94 1d 81 39 9e 	movabs $0x4cc7c19e39811d94,%rax
    15ce:	c1 c7 4c 
    15d1:	4c 0f af e8          	imul   %rax,%r13
    15d5:	4d 89 df             	mov    %r11,%r15
    15d8:	48 b8 03 00 07 ec 0a 	movabs $0x60fec0aec070003,%rax
    15df:	ec 0f 06 
    15e2:	4c 0f af f8          	imul   %rax,%r15
    15e6:	48 89 e8             	mov    %rbp,%rax
    15e9:	48 b9 ff ff 53 b1 fe 	movabs $0x1eabfffeb153ffff,%rcx
    15f0:	ff ab 1e 
    15f3:	48 f7 e1             	mul    %rcx
    15f6:	49 89 d4             	mov    %rdx,%r12
    15f9:	48 89 e8             	mov    %rbp,%rax
    15fc:	48 b9 ab aa ff ff ff 	movabs $0xb9feffffffffaaab,%rcx
    1603:	ff fe b9 
    1606:	48 f7 e1             	mul    %rcx
    1609:	49 89 d6             	mov    %rdx,%r14
    160c:	4d 01 fe             	add    %r15,%r14
    160f:	4d 11 ec             	adc    %r13,%r12
    1612:	31 c0                	xor    %eax,%eax
    1614:	4d 85 db             	test   %r11,%r11
    1617:	4c 89 dd             	mov    %r11,%rbp
    161a:	4c 89 5c 24 d0       	mov    %r11,-0x30(%rsp)
    161f:	0f 95 c0             	setne  %al
    1622:	48 8b 4c 24 58       	mov    0x58(%rsp),%rcx
    1627:	48 8d 14 01          	lea    (%rcx,%rax,1),%rdx
    162b:	45 31 ff             	xor    %r15d,%r15d
    162e:	49 01 d6             	add    %rdx,%r14
    1631:	41 0f 92 c7          	setb   %r15b
    1635:	48 01 c1             	add    %rax,%rcx
    1638:	4d 11 d7             	adc    %r10,%r15
    163b:	40 0f 92 c6          	setb   %sil
    163f:	48 b8 32 4c b2 9f f3 	movabs $0x48669f39fb24c32,%rax
    1646:	69 86 04 
    1649:	48 8b 4c 24 a0       	mov    -0x60(%rsp),%rcx
    164e:	48 0f af c8          	imul   %rax,%rcx
    1652:	48 89 4c 24 a0       	mov    %rcx,-0x60(%rsp)
    1657:	48 ba d7 ac 4b 43 b6 	movabs $0x4b1ba7b6434bacd7,%rdx
    165e:	a7 1b 4b 
    1661:	48 8b 44 24 d8       	mov    -0x28(%rsp),%rax
    1666:	48 f7 e2             	mul    %rdx
    1669:	48 01 ca             	add    %rcx,%rdx
    166c:	48 3b 9c 24 e0 00 00 	cmp    0xe0(%rsp),%rbx
    1673:	00 
    1674:	48 83 d2 00          	adc    $0x0,%rdx
    1678:	48 89 94 24 d8 00 00 	mov    %rdx,0xd8(%rsp)
    167f:	00 
    1680:	31 c0                	xor    %eax,%eax
    1682:	49 01 d1             	add    %rdx,%r9
    1685:	4c 89 8c 24 c8 00 00 	mov    %r9,0xc8(%rsp)
    168c:	00 
    168d:	0f 92 c0             	setb   %al
    1690:	48 89 84 24 a0 00 00 	mov    %rax,0xa0(%rsp)
    1697:	00 
    1698:	80 44 24 c8 ff       	addb   $0xff,-0x38(%rsp)
    169d:	48 8b 44 24 40       	mov    0x40(%rsp),%rax
    16a2:	48 13 84 24 e8 00 00 	adc    0xe8(%rsp),%rax
    16a9:	00 
    16aa:	0f 92 44 24 40       	setb   0x40(%rsp)
    16af:	48 8b 44 24 a8       	mov    -0x58(%rsp),%rax
    16b4:	4c 11 c8             	adc    %r9,%rax
    16b7:	80 44 24 f0 ff       	addb   $0xff,-0x10(%rsp)
    16bc:	48 11 c7             	adc    %rax,%rdi
    16bf:	0f 92 44 24 38       	setb   0x38(%rsp)
    16c4:	48 8b 4c 24 88       	mov    -0x78(%rsp),%rcx
    16c9:	48 b8 7b f9 97 2f 75 	movabs $0x299338752f97f97b,%rax
    16d0:	38 93 29 
    16d3:	48 0f af c8          	imul   %rax,%rcx
    16d7:	48 89 4c 24 f0       	mov    %rcx,-0x10(%rsp)
    16dc:	48 8b 44 24 b8       	mov    -0x48(%rsp),%rax
    16e1:	48 ba bf 12 85 f3 84 	movabs $0x64774b84f38512bf,%rdx
    16e8:	4b 77 64 
    16eb:	48 f7 e2             	mul    %rdx
    16ee:	48 01 ca             	add    %rcx,%rdx
    16f1:	4c 3b 44 24 e8       	cmp    -0x18(%rsp),%r8
    16f6:	48 83 d2 00          	adc    $0x0,%rdx
    16fa:	48 89 94 24 b0 00 00 	mov    %rdx,0xb0(%rsp)
    1701:	00 
    1702:	31 c0                	xor    %eax,%eax
    1704:	48 01 d7             	add    %rdx,%rdi
    1707:	48 89 bc 24 c0 00 00 	mov    %rdi,0xc0(%rsp)
    170e:	00 
    170f:	0f 92 c0             	setb   %al
    1712:	48 89 44 24 c8       	mov    %rax,-0x38(%rsp)
    1717:	80 44 24 b0 ff       	addb   $0xff,-0x50(%rsp)
    171c:	48 8b 44 24 90       	mov    -0x70(%rsp),%rax
    1721:	48 13 84 24 f0 00 00 	adc    0xf0(%rsp),%rax
    1728:	00 
    1729:	0f 92 84 24 d0 00 00 	setb   0xd0(%rsp)
    1730:	00 
    1731:	48 8b 44 24 c0       	mov    -0x40(%rsp),%rax
    1736:	48 11 f8             	adc    %rdi,%rax
    1739:	45 31 db             	xor    %r11d,%r11d
    173c:	4d 01 e7             	add    %r12,%r15
    173f:	41 0f 92 c3          	setb   %r11b
    1743:	40 80 c6 ff          	add    $0xff,%sil
    1747:	49 11 c3             	adc    %rax,%r11
    174a:	0f 92 84 24 a8 00 00 	setb   0xa8(%rsp)
    1751:	00 
    1752:	48 b8 c3 c7 33 ed a4 	movabs $0x2a880aa4ed33c7c3,%rax
    1759:	0a 88 2a 
    175c:	48 0f af e8          	imul   %rax,%rbp
    1760:	48 89 ac 24 b8 00 00 	mov    %rbp,0xb8(%rsp)
    1767:	00 
    1768:	48 8b 44 24 98       	mov    -0x68(%rsp),%rax
    176d:	48 ba 24 f6 b0 f6 a0 	movabs $0x6730d2a0f6b0f624,%rdx
    1774:	d2 30 67 
    1777:	48 f7 e2             	mul    %rdx
    177a:	48 01 ea             	add    %rbp,%rdx
    177d:	4d 39 ec             	cmp    %r13,%r12
    1780:	48 83 d2 00          	adc    $0x0,%rdx
    1784:	48 89 54 24 70       	mov    %rdx,0x70(%rsp)
    1789:	48 8b 44 24 10       	mov    0x10(%rsp),%rax
    178e:	48 8b 48 18          	mov    0x18(%rax),%rcx
    1792:	48 89 4c 24 58       	mov    %rcx,0x58(%rsp)
    1797:	4c 8b 54 24 28       	mov    0x28(%rsp),%r10
    179c:	4d 89 d1             	mov    %r10,%r9
    179f:	4c 0f af c9          	imul   %rcx,%r9
    17a3:	48 8b 44 24 e0       	mov    -0x20(%rsp),%rax
    17a8:	49 89 c5             	mov    %rax,%r13
    17ab:	4c 0f af e9          	imul   %rcx,%r13
    17af:	48 8b 74 24 30       	mov    0x30(%rsp),%rsi
    17b4:	48 89 f5             	mov    %rsi,%rbp
    17b7:	48 0f af e9          	imul   %rcx,%rbp
    17bb:	48 8b 1c 24          	mov    (%rsp),%rbx
    17bf:	49 89 dc             	mov    %rbx,%r12
    17c2:	4c 0f af e1          	imul   %rcx,%r12
    17c6:	48 f7 e1             	mul    %rcx
    17c9:	48 89 d7             	mov    %rdx,%rdi
    17cc:	48 89 f0             	mov    %rsi,%rax
    17cf:	48 f7 e1             	mul    %rcx
    17d2:	49 89 d0             	mov    %rdx,%r8
    17d5:	48 89 d8             	mov    %rbx,%rax
    17d8:	48 f7 e1             	mul    %rcx
    17db:	48 89 d6             	mov    %rdx,%rsi
    17de:	48 01 ee             	add    %rbp,%rsi
    17e1:	4d 11 e8             	adc    %r13,%r8
    17e4:	4c 11 cf             	adc    %r9,%rdi
    17e7:	48 89 7c 24 60       	mov    %rdi,0x60(%rsp)
    17ec:	0f 92 44 24 48       	setb   0x48(%rsp)
    17f1:	4c 89 f3             	mov    %r14,%rbx
    17f4:	4c 01 e3             	add    %r12,%rbx
    17f7:	49 89 f5             	mov    %rsi,%r13
    17fa:	4d 11 fd             	adc    %r15,%r13
    17fd:	48 89 dd             	mov    %rbx,%rbp
    1800:	48 b8 fd ff fc ff fc 	movabs $0x89f3fffcfffcfffd,%rax
    1807:	ff f3 89 
    180a:	48 0f af e8          	imul   %rax,%rbp
    180e:	48 89 6c 24 90       	mov    %rbp,-0x70(%rsp)
    1813:	48 89 d9             	mov    %rbx,%rcx
    1816:	48 b8 94 1d 81 39 9e 	movabs $0x4cc7c19e39811d94,%rax
    181d:	c1 c7 4c 
    1820:	48 0f af c8          	imul   %rax,%rcx
    1824:	48 89 8c 24 90 00 00 	mov    %rcx,0x90(%rsp)
    182b:	00 
    182c:	48 b8 03 00 07 ec 0a 	movabs $0x60fec0aec070003,%rax
    1833:	ec 0f 06 
    1836:	48 0f af d8          	imul   %rax,%rbx
    183a:	48 89 e8             	mov    %rbp,%rax
    183d:	48 ba ff ff 53 b1 fe 	movabs $0x1eabfffeb153ffff,%rdx
    1844:	ff ab 1e 
    1847:	48 f7 e2             	mul    %rdx
    184a:	48 89 d7             	mov    %rdx,%rdi
    184d:	48 89 e8             	mov    %rbp,%rax
    1850:	48 ba ab aa ff ff ff 	movabs $0xb9feffffffffaaab,%rdx
    1857:	ff fe b9 
    185a:	48 f7 e2             	mul    %rdx
    185d:	48 01 da             	add    %rbx,%rdx
    1860:	48 89 d3             	mov    %rdx,%rbx
    1863:	48 11 cf             	adc    %rcx,%rdi
    1866:	48 89 bc 24 88 00 00 	mov    %rdi,0x88(%rsp)
    186d:	00 
    186e:	31 ff                	xor    %edi,%edi
    1870:	4c 8b 4c 24 70       	mov    0x70(%rsp),%r9
    1875:	4d 01 cb             	add    %r9,%r11
    1878:	40 0f 92 c7          	setb   %dil
    187c:	4d 01 f4             	add    %r14,%r12
    187f:	4c 11 fe             	adc    %r15,%rsi
    1882:	0f 92 84 24 98 00 00 	setb   0x98(%rsp)
    1889:	00 
    188a:	4c 89 c0             	mov    %r8,%rax
    188d:	4d 89 c7             	mov    %r8,%r15
    1890:	4c 11 d8             	adc    %r11,%rax
    1893:	31 c9                	xor    %ecx,%ecx
    1895:	4d 85 e4             	test   %r12,%r12
    1898:	4d 89 e0             	mov    %r12,%r8
    189b:	4c 89 64 24 b0       	mov    %r12,-0x50(%rsp)
    18a0:	0f 95 c1             	setne  %cl
    18a3:	49 8d 54 0d 00       	lea    0x0(%r13,%rcx,1),%rdx
    18a8:	31 f6                	xor    %esi,%esi
    18aa:	48 01 d3             	add    %rdx,%rbx
    18ad:	48 89 9c 24 20 01 00 	mov    %rbx,0x120(%rsp)
    18b4:	00 
    18b5:	40 0f 92 c6          	setb   %sil
    18b9:	49 01 cd             	add    %rcx,%r13
    18bc:	48 11 c6             	adc    %rax,%rsi
    18bf:	48 89 74 24 78       	mov    %rsi,0x78(%rsp)
    18c4:	0f 92 84 24 80 00 00 	setb   0x80(%rsp)
    18cb:	00 
    18cc:	4c 8b 64 24 20       	mov    0x20(%rsp),%r12
    18d1:	4c 89 e0             	mov    %r12,%rax
    18d4:	48 8b b4 24 f8 00 00 	mov    0xf8(%rsp),%rsi
    18db:	00 
    18dc:	48 0f af c6          	imul   %rsi,%rax
    18e0:	48 89 c3             	mov    %rax,%rbx
    18e3:	4c 8b 6c 24 08       	mov    0x8(%rsp),%r13
    18e8:	4c 89 e9             	mov    %r13,%rcx
    18eb:	48 0f af ce          	imul   %rsi,%rcx
    18ef:	4c 89 e8             	mov    %r13,%rax
    18f2:	48 f7 e6             	mul    %rsi
    18f5:	48 89 d5             	mov    %rdx,%rbp
    18f8:	48 89 94 24 e8 00 00 	mov    %rdx,0xe8(%rsp)
    18ff:	00 
    1900:	4c 89 d0             	mov    %r10,%rax
    1903:	48 f7 e6             	mul    %rsi
    1906:	80 44 24 18 ff       	addb   $0xff,0x18(%rsp)
    190b:	48 11 ca             	adc    %rcx,%rdx
    190e:	49 89 d6             	mov    %rdx,%r14
    1911:	48 89 94 24 28 01 00 	mov    %rdx,0x128(%rsp)
    1918:	00 
    1919:	0f 92 44 24 e8       	setb   -0x18(%rsp)
    191e:	48 11 eb             	adc    %rbp,%rbx
    1921:	48 89 5c 24 18       	mov    %rbx,0x18(%rsp)
    1926:	0f 92 84 24 f0 00 00 	setb   0xf0(%rsp)
    192d:	00 
    192e:	4c 89 e8             	mov    %r13,%rax
    1931:	48 8b 74 24 f8       	mov    -0x8(%rsp),%rsi
    1936:	48 f7 e6             	mul    %rsi
    1939:	48 89 d1             	mov    %rdx,%rcx
    193c:	8a 5c 24 68          	mov    0x68(%rsp),%bl
    1940:	89 d8                	mov    %ebx,%eax
    1942:	04 ff                	add    $0xff,%al
    1944:	48 89 d0             	mov    %rdx,%rax
    1947:	48 83 d0 00          	adc    $0x0,%rax
    194b:	41 0f 92 c2          	setb   %r10b
    194f:	4c 89 e0             	mov    %r12,%rax
    1952:	4c 89 e5             	mov    %r12,%rbp
    1955:	48 0f af ee          	imul   %rsi,%rbp
    1959:	48 f7 e6             	mul    %rsi
    195c:	80 c3 ff             	add    $0xff,%bl
    195f:	48 11 cd             	adc    %rcx,%rbp
    1962:	48 89 ac 24 18 01 00 	mov    %rbp,0x118(%rsp)
    1969:	00 
    196a:	41 0f b6 c2          	movzbl %r10b,%eax
    196e:	48 11 d0             	adc    %rdx,%rax
    1971:	48 89 c6             	mov    %rax,%rsi
    1974:	48 89 84 24 e0 00 00 	mov    %rax,0xe0(%rsp)
    197b:	00 
    197c:	80 44 24 87 ff       	addb   $0xff,-0x79(%rsp)
    1981:	48 8b 9c 24 a0 00 00 	mov    0xa0(%rsp),%rbx
    1988:	00 
    1989:	48 13 5c 24 50       	adc    0x50(%rsp),%rbx
    198e:	41 0f 92 c2          	setb   %r10b
    1992:	48 b9 9a e6 7f 39 ea 	movabs $0x1a0111ea397fe69a,%rcx
    1999:	11 01 1a 
    199c:	48 8b 44 24 d8       	mov    -0x28(%rsp),%rax
    19a1:	48 f7 e1             	mul    %rcx
    19a4:	48 8b 84 24 d8 00 00 	mov    0xd8(%rsp),%rax
    19ab:	00 
    19ac:	48 3b 44 24 a0       	cmp    -0x60(%rsp),%rax
    19b1:	48 83 d2 00          	adc    $0x0,%rdx
    19b5:	48 01 da             	add    %rbx,%rdx
    19b8:	48 89 94 24 00 01 00 	mov    %rdx,0x100(%rsp)
    19bf:	00 
    19c0:	41 0f b6 c2          	movzbl %r10b,%eax
    19c4:	48 11 f0             	adc    %rsi,%rax
    19c7:	48 89 84 24 d8 00 00 	mov    %rax,0xd8(%rsp)
    19ce:	00 
    19cf:	80 44 24 40 ff       	addb   $0xff,0x40(%rsp)
    19d4:	48 8b 84 24 c8 00 00 	mov    0xc8(%rsp),%rax
    19db:	00 
    19dc:	48 13 44 24 a8       	adc    -0x58(%rsp),%rax
    19e1:	0f 92 84 24 10 01 00 	setb   0x110(%rsp)
    19e8:	00 
    19e9:	48 89 e8             	mov    %rbp,%rax
    19ec:	48 11 d0             	adc    %rdx,%rax
    19ef:	80 44 24 38 ff       	addb   $0xff,0x38(%rsp)
    19f4:	48 8b 74 24 c8       	mov    -0x38(%rsp),%rsi
    19f9:	48 11 c6             	adc    %rax,%rsi
    19fc:	0f 92 44 24 38       	setb   0x38(%rsp)
    1a01:	48 b8 32 4c b2 9f f3 	movabs $0x48669f39fb24c32,%rax
    1a08:	69 86 04 
    1a0b:	48 8b 4c 24 88       	mov    -0x78(%rsp),%rcx
    1a10:	48 0f af c8          	imul   %rax,%rcx
    1a14:	48 89 4c 24 88       	mov    %rcx,-0x78(%rsp)
    1a19:	48 8b 44 24 b8       	mov    -0x48(%rsp),%rax
    1a1e:	48 ba d7 ac 4b 43 b6 	movabs $0x4b1ba7b6434bacd7,%rdx
    1a25:	a7 1b 4b 
    1a28:	48 f7 e2             	mul    %rdx
    1a2b:	48 01 ca             	add    %rcx,%rdx
    1a2e:	48 8b 84 24 b0 00 00 	mov    0xb0(%rsp),%rax
    1a35:	00 
    1a36:	48 3b 44 24 f0       	cmp    -0x10(%rsp),%rax
    1a3b:	48 83 d2 00          	adc    $0x0,%rdx
    1a3f:	48 89 94 24 a0 00 00 	mov    %rdx,0xa0(%rsp)
    1a46:	00 
    1a47:	31 c0                	xor    %eax,%eax
    1a49:	48 89 f1             	mov    %rsi,%rcx
    1a4c:	48 01 d1             	add    %rdx,%rcx
    1a4f:	48 89 4c 24 c8       	mov    %rcx,-0x38(%rsp)
    1a54:	0f 92 c0             	setb   %al
    1a57:	48 89 84 24 08 01 00 	mov    %rax,0x108(%rsp)
    1a5e:	00 
    1a5f:	80 84 24 d0 00 00 00 	addb   $0xff,0xd0(%rsp)
    1a66:	ff 
    1a67:	48 8b 84 24 c0 00 00 	mov    0xc0(%rsp),%rax
    1a6e:	00 
    1a6f:	48 13 44 24 c0       	adc    -0x40(%rsp),%rax
    1a74:	0f 92 84 24 d0 00 00 	setb   0xd0(%rsp)
    1a7b:	00 
    1a7c:	4c 89 f0             	mov    %r14,%rax
    1a7f:	48 11 c8             	adc    %rcx,%rax
    1a82:	80 84 24 a8 00 00 00 	addb   $0xff,0xa8(%rsp)
    1a89:	ff 
    1a8a:	48 11 c7             	adc    %rax,%rdi
    1a8d:	0f 92 84 24 c8 00 00 	setb   0xc8(%rsp)
    1a94:	00 
    1a95:	48 8b 4c 24 d0       	mov    -0x30(%rsp),%rcx
    1a9a:	48 b8 7b f9 97 2f 75 	movabs $0x299338752f97f97b,%rax
    1aa1:	38 93 29 
    1aa4:	48 0f af c8          	imul   %rax,%rcx
    1aa8:	48 89 4c 24 40       	mov    %rcx,0x40(%rsp)
    1aad:	48 8b 44 24 98       	mov    -0x68(%rsp),%rax
    1ab2:	48 ba bf 12 85 f3 84 	movabs $0x64774b84f38512bf,%rdx
    1ab9:	4b 77 64 
    1abc:	48 f7 e2             	mul    %rdx
    1abf:	48 01 ca             	add    %rcx,%rdx
    1ac2:	4c 3b 8c 24 b8 00 00 	cmp    0xb8(%rsp),%r9
    1ac9:	00 
    1aca:	48 83 d2 00          	adc    $0x0,%rdx
    1ace:	48 89 94 24 a8 00 00 	mov    %rdx,0xa8(%rsp)
    1ad5:	00 
    1ad6:	31 c0                	xor    %eax,%eax
    1ad8:	48 01 d7             	add    %rdx,%rdi
    1adb:	48 89 bc 24 b8 00 00 	mov    %rdi,0xb8(%rsp)
    1ae2:	00 
    1ae3:	0f 92 c0             	setb   %al
    1ae6:	48 89 44 24 c0       	mov    %rax,-0x40(%rsp)
    1aeb:	80 84 24 98 00 00 00 	addb   $0xff,0x98(%rsp)
    1af2:	ff 
    1af3:	4d 11 fb             	adc    %r15,%r11
    1af6:	0f 92 84 24 c0 00 00 	setb   0xc0(%rsp)
    1afd:	00 
    1afe:	48 8b 44 24 60       	mov    0x60(%rsp),%rax
    1b03:	48 11 f8             	adc    %rdi,%rax
    1b06:	45 31 e4             	xor    %r12d,%r12d
    1b09:	4c 8b 5c 24 78       	mov    0x78(%rsp),%r11
    1b0e:	48 8b 8c 24 88 00 00 	mov    0x88(%rsp),%rcx
    1b15:	00 
    1b16:	49 01 cb             	add    %rcx,%r11
    1b19:	41 0f 92 c4          	setb   %r12b
    1b1d:	80 84 24 80 00 00 00 	addb   $0xff,0x80(%rsp)
    1b24:	ff 
    1b25:	49 11 c4             	adc    %rax,%r12
    1b28:	0f 92 84 24 98 00 00 	setb   0x98(%rsp)
    1b2f:	00 
    1b30:	48 b8 c3 c7 33 ed a4 	movabs $0x2a880aa4ed33c7c3,%rax
    1b37:	0a 88 2a 
    1b3a:	4c 0f af c0          	imul   %rax,%r8
    1b3e:	4c 89 84 24 b0 00 00 	mov    %r8,0xb0(%rsp)
    1b45:	00 
    1b46:	48 8b 44 24 90       	mov    -0x70(%rsp),%rax
    1b4b:	48 ba 24 f6 b0 f6 a0 	movabs $0x6730d2a0f6b0f624,%rdx
    1b52:	d2 30 67 
    1b55:	48 f7 e2             	mul    %rdx
    1b58:	49 89 d7             	mov    %rdx,%r15
    1b5b:	4d 01 c7             	add    %r8,%r15
    1b5e:	48 3b 8c 24 90 00 00 	cmp    0x90(%rsp),%rcx
    1b65:	00 
    1b66:	49 83 d7 00          	adc    $0x0,%r15
    1b6a:	4c 89 7c 24 70       	mov    %r15,0x70(%rsp)
    1b6f:	48 8b 44 24 10       	mov    0x10(%rsp),%rax
    1b74:	48 8b 68 20          	mov    0x20(%rax),%rbp
    1b78:	48 89 6c 24 68       	mov    %rbp,0x68(%rsp)
    1b7d:	4c 8b 6c 24 28       	mov    0x28(%rsp),%r13
    1b82:	4d 89 ea             	mov    %r13,%r10
    1b85:	4c 0f af d5          	imul   %rbp,%r10
    1b89:	48 8b 44 24 e0       	mov    -0x20(%rsp),%rax
    1b8e:	49 89 c1             	mov    %rax,%r9
    1b91:	4c 0f af cd          	imul   %rbp,%r9
    1b95:	48 8b 7c 24 30       	mov    0x30(%rsp),%rdi
    1b9a:	48 89 fb             	mov    %rdi,%rbx
    1b9d:	48 0f af dd          	imul   %rbp,%rbx
    1ba1:	48 8b 0c 24          	mov    (%rsp),%rcx
    1ba5:	49 89 c8             	mov    %rcx,%r8
    1ba8:	4c 0f af c5          	imul   %rbp,%r8
    1bac:	48 f7 e5             	mul    %rbp
    1baf:	48 89 d6             	mov    %rdx,%rsi
    1bb2:	48 89 f8             	mov    %rdi,%rax
    1bb5:	48 f7 e5             	mul    %rbp
    1bb8:	49 89 d6             	mov    %rdx,%r14
    1bbb:	48 89 c8             	mov    %rcx,%rax
    1bbe:	48 f7 e5             	mul    %rbp
    1bc1:	48 89 d5             	mov    %rdx,%rbp
    1bc4:	48 01 dd             	add    %rbx,%rbp
    1bc7:	4d 11 ce             	adc    %r9,%r14
    1bca:	4c 11 d6             	adc    %r10,%rsi
    1bcd:	48 89 74 24 f8       	mov    %rsi,-0x8(%rsp)
    1bd2:	0f 92 44 24 50       	setb   0x50(%rsp)
    1bd7:	4c 8b 94 24 20 01 00 	mov    0x120(%rsp),%r10
    1bde:	00 
    1bdf:	4c 89 d7             	mov    %r10,%rdi
    1be2:	4c 01 c7             	add    %r8,%rdi
    1be5:	49 89 e9             	mov    %rbp,%r9
    1be8:	4d 11 d9             	adc    %r11,%r9
    1beb:	48 89 fb             	mov    %rdi,%rbx
    1bee:	48 b8 fd ff fc ff fc 	movabs $0x89f3fffcfffcfffd,%rax
    1bf5:	ff f3 89 
    1bf8:	48 0f af d8          	imul   %rax,%rbx
    1bfc:	48 89 5c 24 d8       	mov    %rbx,-0x28(%rsp)
    1c01:	48 89 f9             	mov    %rdi,%rcx
    1c04:	48 b8 94 1d 81 39 9e 	movabs $0x4cc7c19e39811d94,%rax
    1c0b:	c1 c7 4c 
    1c0e:	48 0f af c8          	imul   %rax,%rcx
    1c12:	48 89 8c 24 90 00 00 	mov    %rcx,0x90(%rsp)
    1c19:	00 
    1c1a:	48 b8 03 00 07 ec 0a 	movabs $0x60fec0aec070003,%rax
    1c21:	ec 0f 06 
    1c24:	48 0f af f8          	imul   %rax,%rdi
    1c28:	48 89 d8             	mov    %rbx,%rax
    1c2b:	48 ba ff ff 53 b1 fe 	movabs $0x1eabfffeb153ffff,%rdx
    1c32:	ff ab 1e 
    1c35:	48 f7 e2             	mul    %rdx
    1c38:	48 89 d6             	mov    %rdx,%rsi
    1c3b:	48 89 d8             	mov    %rbx,%rax
    1c3e:	48 ba ab aa ff ff ff 	movabs $0xb9feffffffffaaab,%rdx
    1c45:	ff fe b9 
    1c48:	48 f7 e2             	mul    %rdx
    1c4b:	48 01 fa             	add    %rdi,%rdx
    1c4e:	48 89 d7             	mov    %rdx,%rdi
    1c51:	48 11 ce             	adc    %rcx,%rsi
    1c54:	48 89 b4 24 80 00 00 	mov    %rsi,0x80(%rsp)
    1c5b:	00 
    1c5c:	31 c0                	xor    %eax,%eax
    1c5e:	4d 01 fc             	add    %r15,%r12
    1c61:	0f 92 c0             	setb   %al
    1c64:	49 89 c7             	mov    %rax,%r15
    1c67:	4d 01 d0             	add    %r10,%r8
    1c6a:	4c 89 44 24 a0       	mov    %r8,-0x60(%rsp)
    1c6f:	4c 11 dd             	adc    %r11,%rbp
    1c72:	0f 92 44 24 78       	setb   0x78(%rsp)
    1c77:	4c 89 f0             	mov    %r14,%rax
    1c7a:	4c 11 e0             	adc    %r12,%rax
    1c7d:	31 d2                	xor    %edx,%edx
    1c7f:	4d 85 c0             	test   %r8,%r8
    1c82:	0f 95 c2             	setne  %dl
    1c85:	49 8d 2c 11          	lea    (%r9,%rdx,1),%rbp
    1c89:	31 c9                	xor    %ecx,%ecx
    1c8b:	48 01 ef             	add    %rbp,%rdi
    1c8e:	48 89 bc 24 88 00 00 	mov    %rdi,0x88(%rsp)
    1c95:	00 
    1c96:	0f 92 c1             	setb   %cl
    1c99:	49 01 d1             	add    %rdx,%r9
    1c9c:	48 11 c1             	adc    %rax,%rcx
    1c9f:	49 89 ca             	mov    %rcx,%r10
    1ca2:	41 0f 92 c0          	setb   %r8b
    1ca6:	48 8b 7c 24 20       	mov    0x20(%rsp),%rdi
    1cab:	48 89 f8             	mov    %rdi,%rax
    1cae:	48 8b 4c 24 58       	mov    0x58(%rsp),%rcx
    1cb3:	48 0f af c1          	imul   %rcx,%rax
    1cb7:	48 89 c3             	mov    %rax,%rbx
    1cba:	48 8b 44 24 08       	mov    0x8(%rsp),%rax
    1cbf:	48 89 c5             	mov    %rax,%rbp
    1cc2:	48 0f af e9          	imul   %rcx,%rbp
    1cc6:	48 f7 e1             	mul    %rcx
    1cc9:	48 89 d6             	mov    %rdx,%rsi
    1ccc:	48 89 54 24 f0       	mov    %rdx,-0x10(%rsp)
    1cd1:	4c 89 e8             	mov    %r13,%rax
    1cd4:	48 f7 e1             	mul    %rcx
    1cd7:	80 44 24 48 ff       	addb   $0xff,0x48(%rsp)
    1cdc:	48 11 ea             	adc    %rbp,%rdx
    1cdf:	49 89 d1             	mov    %rdx,%r9
    1ce2:	48 89 94 24 20 01 00 	mov    %rdx,0x120(%rsp)
    1ce9:	00 
    1cea:	0f 92 44 24 87       	setb   -0x79(%rsp)
    1cef:	48 11 f3             	adc    %rsi,%rbx
    1cf2:	48 89 5c 24 a8       	mov    %rbx,-0x58(%rsp)
    1cf7:	0f 92 44 24 48       	setb   0x48(%rsp)
    1cfc:	48 89 f8             	mov    %rdi,%rax
    1cff:	48 f7 a4 24 f8 00 00 	mulq   0xf8(%rsp)
    1d06:	00 
    1d07:	80 44 24 e8 ff       	addb   $0xff,-0x18(%rsp)
    1d0c:	48 83 94 24 e8 00 00 	adcq   $0x0,0xe8(%rsp)
    1d13:	00 00 
    1d15:	0f 92 c1             	setb   %cl
    1d18:	48 89 d5             	mov    %rdx,%rbp
    1d1b:	48 83 d5 00          	adc    $0x0,%rbp
    1d1f:	8a 84 24 f0 00 00 00 	mov    0xf0(%rsp),%al
    1d26:	89 c3                	mov    %eax,%ebx
    1d28:	80 c3 ff             	add    $0xff,%bl
    1d2b:	0f b6 c9             	movzbl %cl,%ecx
    1d2e:	48 11 d1             	adc    %rdx,%rcx
    1d31:	48 89 4c 24 e8       	mov    %rcx,-0x18(%rsp)
    1d36:	80 84 24 10 01 00 00 	addb   $0xff,0x110(%rsp)
    1d3d:	ff 
    1d3e:	48 8b 8c 24 00 01 00 	mov    0x100(%rsp),%rcx
    1d45:	00 
    1d46:	48 13 8c 24 18 01 00 	adc    0x118(%rsp),%rcx
    1d4d:	00 
    1d4e:	48 8b 94 24 d8 00 00 	mov    0xd8(%rsp),%rdx
    1d55:	00 
    1d56:	48 83 d2 00          	adc    $0x0,%rdx
    1d5a:	31 c9                	xor    %ecx,%ecx
    1d5c:	48 3b 94 24 e0 00 00 	cmp    0xe0(%rsp),%rdx
    1d63:	00 
    1d64:	0f 92 c1             	setb   %cl
    1d67:	04 ff                	add    $0xff,%al
    1d69:	48 11 e9             	adc    %rbp,%rcx
    1d6c:	80 44 24 38 ff       	addb   $0xff,0x38(%rsp)
    1d71:	48 8b b4 24 08 01 00 	mov    0x108(%rsp),%rsi
    1d78:	00 
    1d79:	48 11 d6             	adc    %rdx,%rsi
    1d7c:	0f 92 c3             	setb   %bl
    1d7f:	48 8b 44 24 b8       	mov    -0x48(%rsp),%rax
    1d84:	48 ba 9a e6 7f 39 ea 	movabs $0x1a0111ea397fe69a,%rdx
    1d8b:	11 01 1a 
    1d8e:	48 f7 e2             	mul    %rdx
    1d91:	48 8b 84 24 a0 00 00 	mov    0xa0(%rsp),%rax
    1d98:	00 
    1d99:	48 3b 44 24 88       	cmp    -0x78(%rsp),%rax
    1d9e:	48 83 d2 00          	adc    $0x0,%rdx
    1da2:	48 01 f2             	add    %rsi,%rdx
    1da5:	48 89 94 24 18 01 00 	mov    %rdx,0x118(%rsp)
    1dac:	00 
    1dad:	0f b6 c3             	movzbl %bl,%eax
    1db0:	48 11 c8             	adc    %rcx,%rax
    1db3:	48 89 44 24 38       	mov    %rax,0x38(%rsp)
    1db8:	80 84 24 d0 00 00 00 	addb   $0xff,0xd0(%rsp)
    1dbf:	ff 
    1dc0:	48 8b 44 24 c8       	mov    -0x38(%rsp),%rax
    1dc5:	48 13 84 24 28 01 00 	adc    0x128(%rsp),%rax
    1dcc:	00 
    1dcd:	0f 92 84 24 a0 00 00 	setb   0xa0(%rsp)
    1dd4:	00 
    1dd5:	48 8b 44 24 18       	mov    0x18(%rsp),%rax
    1dda:	48 11 d0             	adc    %rdx,%rax
    1ddd:	80 84 24 c8 00 00 00 	addb   $0xff,0xc8(%rsp)
    1de4:	ff 
    1de5:	48 8b 74 24 c0       	mov    -0x40(%rsp),%rsi
    1dea:	48 11 c6             	adc    %rax,%rsi
    1ded:	0f 92 84 24 e0 00 00 	setb   0xe0(%rsp)
    1df4:	00 
    1df5:	48 b8 32 4c b2 9f f3 	movabs $0x48669f39fb24c32,%rax
    1dfc:	69 86 04 
    1dff:	48 8b 7c 24 d0       	mov    -0x30(%rsp),%rdi
    1e04:	48 0f af f8          	imul   %rax,%rdi
    1e08:	48 89 7c 24 d0       	mov    %rdi,-0x30(%rsp)
    1e0d:	48 8b 44 24 98       	mov    -0x68(%rsp),%rax
    1e12:	48 b9 d7 ac 4b 43 b6 	movabs $0x4b1ba7b6434bacd7,%rcx
    1e19:	a7 1b 4b 
    1e1c:	48 f7 e1             	mul    %rcx
    1e1f:	48 01 fa             	add    %rdi,%rdx
    1e22:	48 8b 84 24 a8 00 00 	mov    0xa8(%rsp),%rax
    1e29:	00 
    1e2a:	48 3b 44 24 40       	cmp    0x40(%rsp),%rax
    1e2f:	48 83 d2 00          	adc    $0x0,%rdx
    1e33:	48 89 94 24 a8 00 00 	mov    %rdx,0xa8(%rsp)
    1e3a:	00 
    1e3b:	31 c0                	xor    %eax,%eax
    1e3d:	48 89 f1             	mov    %rsi,%rcx
    1e40:	48 01 d1             	add    %rdx,%rcx
    1e43:	48 89 4c 24 c0       	mov    %rcx,-0x40(%rsp)
    1e48:	0f 92 c0             	setb   %al
    1e4b:	48 89 84 24 10 01 00 	mov    %rax,0x110(%rsp)
    1e52:	00 
    1e53:	80 84 24 c0 00 00 00 	addb   $0xff,0xc0(%rsp)
    1e5a:	ff 
    1e5b:	48 8b 84 24 b8 00 00 	mov    0xb8(%rsp),%rax
    1e62:	00 
    1e63:	48 13 44 24 60       	adc    0x60(%rsp),%rax
    1e68:	0f 92 44 24 40       	setb   0x40(%rsp)
    1e6d:	4c 89 c8             	mov    %r9,%rax
    1e70:	48 11 c8             	adc    %rcx,%rax
    1e73:	80 84 24 98 00 00 00 	addb   $0xff,0x98(%rsp)
    1e7a:	ff 
    1e7b:	49 11 c7             	adc    %rax,%r15
    1e7e:	0f 92 84 24 d8 00 00 	setb   0xd8(%rsp)
    1e85:	00 
    1e86:	48 8b 74 24 b0       	mov    -0x50(%rsp),%rsi
    1e8b:	48 b8 7b f9 97 2f 75 	movabs $0x299338752f97f97b,%rax
    1e92:	38 93 29 
    1e95:	48 0f af f0          	imul   %rax,%rsi
    1e99:	48 89 b4 24 e8 00 00 	mov    %rsi,0xe8(%rsp)
    1ea0:	00 
    1ea1:	48 8b 44 24 90       	mov    -0x70(%rsp),%rax
    1ea6:	48 b9 bf 12 85 f3 84 	movabs $0x64774b84f38512bf,%rcx
    1ead:	4b 77 64 
    1eb0:	48 f7 e1             	mul    %rcx
    1eb3:	48 01 f2             	add    %rsi,%rdx
    1eb6:	48 8b 44 24 70       	mov    0x70(%rsp),%rax
    1ebb:	48 3b 84 24 b0 00 00 	cmp    0xb0(%rsp),%rax
    1ec2:	00 
    1ec3:	48 83 d2 00          	adc    $0x0,%rdx
    1ec7:	48 89 94 24 c8 00 00 	mov    %rdx,0xc8(%rsp)
    1ece:	00 
    1ecf:	31 c0                	xor    %eax,%eax
    1ed1:	49 01 d7             	add    %rdx,%r15
    1ed4:	4c 89 bc 24 d0 00 00 	mov    %r15,0xd0(%rsp)
    1edb:	00 
    1edc:	0f 92 c0             	setb   %al
    1edf:	48 89 84 24 b8 00 00 	mov    %rax,0xb8(%rsp)
    1ee6:	00 
    1ee7:	80 44 24 78 ff       	addb   $0xff,0x78(%rsp)
    1eec:	4d 11 f4             	adc    %r14,%r12
    1eef:	0f 92 84 24 28 01 00 	setb   0x128(%rsp)
    1ef6:	00 
    1ef7:	48 8b 44 24 f8       	mov    -0x8(%rsp),%rax
    1efc:	4c 11 f8             	adc    %r15,%rax
    1eff:	45 31 f6             	xor    %r14d,%r14d
    1f02:	4d 89 d3             	mov    %r10,%r11
    1f05:	48 8b bc 24 80 00 00 	mov    0x80(%rsp),%rdi
    1f0c:	00 
    1f0d:	49 01 fb             	add    %rdi,%r11
    1f10:	41 0f 92 c6          	setb   %r14b
    1f14:	41 80 c0 ff          	add    $0xff,%r8b
    1f18:	49 11 c6             	adc    %rax,%r14
    1f1b:	0f 92 84 24 c0 00 00 	setb   0xc0(%rsp)
    1f22:	00 
    1f23:	48 8b 74 24 a0       	mov    -0x60(%rsp),%rsi
    1f28:	48 b8 c3 c7 33 ed a4 	movabs $0x2a880aa4ed33c7c3,%rax
    1f2f:	0a 88 2a 
    1f32:	48 0f af f0          	imul   %rax,%rsi
    1f36:	48 89 b4 24 f0 00 00 	mov    %rsi,0xf0(%rsp)
    1f3d:	00 
    1f3e:	48 8b 44 24 d8       	mov    -0x28(%rsp),%rax
    1f43:	48 b9 24 f6 b0 f6 a0 	movabs $0x6730d2a0f6b0f624,%rcx
    1f4a:	d2 30 67 
    1f4d:	48 f7 e1             	mul    %rcx
    1f50:	49 89 d5             	mov    %rdx,%r13
    1f53:	49 01 f5             	add    %rsi,%r13
    1f56:	48 3b bc 24 90 00 00 	cmp    0x90(%rsp),%rdi
    1f5d:	00 
    1f5e:	48 8b 44 24 10       	mov    0x10(%rsp),%rax
    1f63:	48 8b 68 28          	mov    0x28(%rax),%rbp
    1f67:	48 89 ac 24 98 00 00 	mov    %rbp,0x98(%rsp)
    1f6e:	00 
    1f6f:	49 83 d5 00          	adc    $0x0,%r13
    1f73:	4c 89 ac 24 80 00 00 	mov    %r13,0x80(%rsp)
    1f7a:	00 
    1f7b:	48 8b 74 24 e0       	mov    -0x20(%rsp),%rsi
    1f80:	48 0f af f5          	imul   %rbp,%rsi
    1f84:	48 8b 44 24 30       	mov    0x30(%rsp),%rax
    1f89:	48 89 c1             	mov    %rax,%rcx
    1f8c:	48 0f af cd          	imul   %rbp,%rcx
    1f90:	48 8b 3c 24          	mov    (%rsp),%rdi
    1f94:	49 89 f8             	mov    %rdi,%r8
    1f97:	4c 0f af c5          	imul   %rbp,%r8
    1f9b:	48 f7 e5             	mul    %rbp
    1f9e:	49 89 d4             	mov    %rdx,%r12
    1fa1:	48 89 f8             	mov    %rdi,%rax
    1fa4:	48 f7 e5             	mul    %rbp
    1fa7:	49 89 d2             	mov    %rdx,%r10
    1faa:	49 01 ca             	add    %rcx,%r10
    1fad:	49 11 f4             	adc    %rsi,%r12
    1fb0:	4c 89 a4 24 08 01 00 	mov    %r12,0x108(%rsp)
    1fb7:	00 
    1fb8:	0f 92 84 24 b0 00 00 	setb   0xb0(%rsp)
    1fbf:	00 
    1fc0:	4c 8b bc 24 88 00 00 	mov    0x88(%rsp),%r15
    1fc7:	00 
    1fc8:	4c 89 f9             	mov    %r15,%rcx
    1fcb:	4c 01 c1             	add    %r8,%rcx
    1fce:	4d 89 d1             	mov    %r10,%r9
    1fd1:	4d 11 d9             	adc    %r11,%r9
    1fd4:	48 bb fd ff fc ff fc 	movabs $0x89f3fffcfffcfffd,%rbx
    1fdb:	ff f3 89 
    1fde:	48 0f af d9          	imul   %rcx,%rbx
    1fe2:	48 89 5c 24 b8       	mov    %rbx,-0x48(%rsp)
    1fe7:	48 be 94 1d 81 39 9e 	movabs $0x4cc7c19e39811d94,%rsi
    1fee:	c1 c7 4c 
    1ff1:	48 0f af f1          	imul   %rcx,%rsi
    1ff5:	48 89 74 24 60       	mov    %rsi,0x60(%rsp)
    1ffa:	48 b8 03 00 07 ec 0a 	movabs $0x60fec0aec070003,%rax
    2001:	ec 0f 06 
    2004:	48 0f af c8          	imul   %rax,%rcx
    2008:	48 89 d8             	mov    %rbx,%rax
    200b:	48 ba ff ff 53 b1 fe 	movabs $0x1eabfffeb153ffff,%rdx
    2012:	ff ab 1e 
    2015:	48 f7 e2             	mul    %rdx
    2018:	48 89 d7             	mov    %rdx,%rdi
    201b:	48 89 d8             	mov    %rbx,%rax
    201e:	48 ba ab aa ff ff ff 	movabs $0xb9feffffffffaaab,%rdx
    2025:	ff fe b9 
    2028:	48 f7 e2             	mul    %rdx
    202b:	48 01 ca             	add    %rcx,%rdx
    202e:	48 89 d3             	mov    %rdx,%rbx
    2031:	48 11 f7             	adc    %rsi,%rdi
    2034:	48 89 7c 24 c8       	mov    %rdi,-0x38(%rsp)
    2039:	31 c0                	xor    %eax,%eax
    203b:	4d 01 ee             	add    %r13,%r14
    203e:	4c 89 b4 24 00 01 00 	mov    %r14,0x100(%rsp)
    2045:	00 
    2046:	0f 92 c0             	setb   %al
    2049:	48 89 44 24 88       	mov    %rax,-0x78(%rsp)
    204e:	4d 01 f8             	add    %r15,%r8
    2051:	4c 89 04 24          	mov    %r8,(%rsp)
    2055:	4d 11 da             	adc    %r11,%r10
    2058:	0f 92 84 24 90 00 00 	setb   0x90(%rsp)
    205f:	00 
    2060:	4d 11 f4             	adc    %r14,%r12
    2063:	31 c9                	xor    %ecx,%ecx
    2065:	4d 85 c0             	test   %r8,%r8
    2068:	0f 95 c1             	setne  %cl
    206b:	49 8d 14 09          	lea    (%r9,%rcx,1),%rdx
    206f:	31 f6                	xor    %esi,%esi
    2071:	48 01 d3             	add    %rdx,%rbx
    2074:	48 89 5c 24 30       	mov    %rbx,0x30(%rsp)
    2079:	40 0f 92 c6          	setb   %sil
    207d:	49 01 c9             	add    %rcx,%r9
    2080:	4c 11 e6             	adc    %r12,%rsi
    2083:	48 89 74 24 10       	mov    %rsi,0x10(%rsp)
    2088:	0f 92 84 24 88 00 00 	setb   0x88(%rsp)
    208f:	00 
    2090:	48 8b 74 24 20       	mov    0x20(%rsp),%rsi
    2095:	48 89 f0             	mov    %rsi,%rax
    2098:	48 8b 7c 24 68       	mov    0x68(%rsp),%rdi
    209d:	48 0f af c7          	imul   %rdi,%rax
    20a1:	48 89 c3             	mov    %rax,%rbx
    20a4:	48 8b 44 24 08       	mov    0x8(%rsp),%rax
    20a9:	48 89 c1             	mov    %rax,%rcx
    20ac:	48 0f af cf          	imul   %rdi,%rcx
    20b0:	49 89 c5             	mov    %rax,%r13
    20b3:	48 f7 e7             	mul    %rdi
    20b6:	48 89 d5             	mov    %rdx,%rbp
    20b9:	48 89 54 24 70       	mov    %rdx,0x70(%rsp)
    20be:	4c 8b 54 24 28       	mov    0x28(%rsp),%r10
    20c3:	4c 89 d0             	mov    %r10,%rax
    20c6:	48 f7 e7             	mul    %rdi
    20c9:	80 44 24 50 ff       	addb   $0xff,0x50(%rsp)
    20ce:	48 11 ca             	adc    %rcx,%rdx
    20d1:	49 89 d0             	mov    %rdx,%r8
    20d4:	48 89 94 24 30 01 00 	mov    %rdx,0x130(%rsp)
    20db:	00 
    20dc:	0f 92 44 24 78       	setb   0x78(%rsp)
    20e1:	48 11 eb             	adc    %rbp,%rbx
    20e4:	48 89 9c 24 f8 00 00 	mov    %rbx,0xf8(%rsp)
    20eb:	00 
    20ec:	0f 92 44 24 50       	setb   0x50(%rsp)
    20f1:	48 89 f0             	mov    %rsi,%rax
    20f4:	48 f7 64 24 58       	mulq   0x58(%rsp)
    20f9:	80 44 24 87 ff       	addb   $0xff,-0x79(%rsp)
    20fe:	48 83 54 24 f0 00    	adcq   $0x0,-0x10(%rsp)
    2104:	40 0f 92 c6          	setb   %sil
    2108:	48 89 d1             	mov    %rdx,%rcx
    210b:	48 83 d1 00          	adc    $0x0,%rcx
    210f:	8a 44 24 48          	mov    0x48(%rsp),%al
    2113:	89 c3                	mov    %eax,%ebx
    2115:	80 c3 ff             	add    $0xff,%bl
    2118:	40 0f b6 f6          	movzbl %sil,%esi
    211c:	48 11 d6             	adc    %rdx,%rsi
    211f:	48 89 74 24 58       	mov    %rsi,0x58(%rsp)
    2124:	80 84 24 a0 00 00 00 	addb   $0xff,0xa0(%rsp)
    212b:	ff 
    212c:	48 8b 94 24 18 01 00 	mov    0x118(%rsp),%rdx
    2133:	00 
    2134:	48 13 54 24 18       	adc    0x18(%rsp),%rdx
    2139:	48 8b 54 24 38       	mov    0x38(%rsp),%rdx
    213e:	48 83 d2 00          	adc    $0x0,%rdx
    2142:	31 ff                	xor    %edi,%edi
    2144:	48 3b 54 24 e8       	cmp    -0x18(%rsp),%rdx
    2149:	40 0f 92 c7          	setb   %dil
    214d:	04 ff                	add    $0xff,%al
    214f:	48 11 cf             	adc    %rcx,%rdi
    2152:	80 84 24 e0 00 00 00 	addb   $0xff,0xe0(%rsp)
    2159:	ff 
    215a:	48 8b ac 24 10 01 00 	mov    0x110(%rsp),%rbp
    2161:	00 
    2162:	48 11 d5             	adc    %rdx,%rbp
    2165:	0f 92 c1             	setb   %cl
    2168:	48 8b 44 24 98       	mov    -0x68(%rsp),%rax
    216d:	48 ba 9a e6 7f 39 ea 	movabs $0x1a0111ea397fe69a,%rdx
    2174:	11 01 1a 
    2177:	48 f7 e2             	mul    %rdx
    217a:	49 89 d1             	mov    %rdx,%r9
    217d:	48 8b 84 24 a8 00 00 	mov    0xa8(%rsp),%rax
    2184:	00 
    2185:	48 3b 44 24 d0       	cmp    -0x30(%rsp),%rax
    218a:	49 83 d1 00          	adc    $0x0,%r9
    218e:	49 01 e9             	add    %rbp,%r9
    2191:	0f b6 e9             	movzbl %cl,%ebp
    2194:	48 11 fd             	adc    %rdi,%rbp
    2197:	80 44 24 40 ff       	addb   $0xff,0x40(%rsp)
    219c:	48 8b 44 24 c0       	mov    -0x40(%rsp),%rax
    21a1:	48 13 84 24 20 01 00 	adc    0x120(%rsp),%rax
    21a8:	00 
    21a9:	0f 92 44 24 f0       	setb   -0x10(%rsp)
    21ae:	48 8b 44 24 a8       	mov    -0x58(%rsp),%rax
    21b3:	4c 11 c8             	adc    %r9,%rax
    21b6:	80 84 24 d8 00 00 00 	addb   $0xff,0xd8(%rsp)
    21bd:	ff 
    21be:	4c 8b b4 24 b8 00 00 	mov    0xb8(%rsp),%r14
    21c5:	00 
    21c6:	49 11 c6             	adc    %rax,%r14
    21c9:	0f 92 44 24 48       	setb   0x48(%rsp)
    21ce:	48 b8 32 4c b2 9f f3 	movabs $0x48669f39fb24c32,%rax
    21d5:	69 86 04 
    21d8:	48 8b 74 24 b0       	mov    -0x50(%rsp),%rsi
    21dd:	48 0f af f0          	imul   %rax,%rsi
    21e1:	48 89 74 24 b0       	mov    %rsi,-0x50(%rsp)
    21e6:	48 8b 44 24 90       	mov    -0x70(%rsp),%rax
    21eb:	48 b9 d7 ac 4b 43 b6 	movabs $0x4b1ba7b6434bacd7,%rcx
    21f2:	a7 1b 4b 
    21f5:	48 f7 e1             	mul    %rcx
    21f8:	48 89 d7             	mov    %rdx,%rdi
    21fb:	48 01 f7             	add    %rsi,%rdi
    21fe:	48 8b 84 24 c8 00 00 	mov    0xc8(%rsp),%rax
    2205:	00 
    2206:	48 3b 84 24 e8 00 00 	cmp    0xe8(%rsp),%rax
    220d:	00 
    220e:	48 83 d7 00          	adc    $0x0,%rdi
    2212:	45 31 e4             	xor    %r12d,%r12d
    2215:	49 01 fe             	add    %rdi,%r14
    2218:	41 0f 92 c4          	setb   %r12b
    221c:	80 84 24 28 01 00 00 	addb   $0xff,0x128(%rsp)
    2223:	ff 
    2224:	48 8b 84 24 d0 00 00 	mov    0xd0(%rsp),%rax
    222b:	00 
    222c:	48 13 44 24 f8       	adc    -0x8(%rsp),%rax
    2231:	0f 92 44 24 f8       	setb   -0x8(%rsp)
    2236:	4c 89 c0             	mov    %r8,%rax
    2239:	4c 11 f0             	adc    %r14,%rax
    223c:	80 84 24 c0 00 00 00 	addb   $0xff,0xc0(%rsp)
    2243:	ff 
    2244:	48 8b 74 24 88       	mov    -0x78(%rsp),%rsi
    2249:	48 11 c6             	adc    %rax,%rsi
    224c:	0f 92 44 24 87       	setb   -0x79(%rsp)
    2251:	4d 89 ef             	mov    %r13,%r15
    2254:	4c 8b ac 24 98 00 00 	mov    0x98(%rsp),%r13
    225b:	00 
    225c:	4d 0f af fd          	imul   %r13,%r15
    2260:	4c 89 d3             	mov    %r10,%rbx
    2263:	49 0f af dd          	imul   %r13,%rbx
    2267:	4c 89 d0             	mov    %r10,%rax
    226a:	49 f7 e5             	mul    %r13
    226d:	48 89 d1             	mov    %rdx,%rcx
    2270:	48 8b 44 24 e0       	mov    -0x20(%rsp),%rax
    2275:	49 f7 e5             	mul    %r13
    2278:	80 84 24 b0 00 00 00 	addb   $0xff,0xb0(%rsp)
    227f:	ff 
    2280:	48 11 da             	adc    %rbx,%rdx
    2283:	48 89 d3             	mov    %rdx,%rbx
    2286:	48 89 54 24 c0       	mov    %rdx,-0x40(%rsp)
    228b:	4c 11 f9             	adc    %r15,%rcx
    228e:	48 89 4c 24 98       	mov    %rcx,-0x68(%rsp)
    2293:	0f 92 44 24 e8       	setb   -0x18(%rsp)
    2298:	4c 8b 54 24 a0       	mov    -0x60(%rsp),%r10
    229d:	48 b8 7b f9 97 2f 75 	movabs $0x299338752f97f97b,%rax
    22a4:	38 93 29 
    22a7:	4c 0f af d0          	imul   %rax,%r10
    22ab:	48 8b 44 24 d8       	mov    -0x28(%rsp),%rax
    22b0:	48 b9 bf 12 85 f3 84 	movabs $0x64774b84f38512bf,%rcx
    22b7:	4b 77 64 
    22ba:	48 f7 e1             	mul    %rcx
    22bd:	49 89 d0             	mov    %rdx,%r8
    22c0:	4d 01 d0             	add    %r10,%r8
    22c3:	48 8b 84 24 80 00 00 	mov    0x80(%rsp),%rax
    22ca:	00 
    22cb:	48 3b 84 24 f0 00 00 	cmp    0xf0(%rsp),%rax
    22d2:	00 
    22d3:	49 83 d0 00          	adc    $0x0,%r8
    22d7:	45 31 ff             	xor    %r15d,%r15d
    22da:	48 89 f1             	mov    %rsi,%rcx
    22dd:	4c 01 c1             	add    %r8,%rcx
    22e0:	48 89 4c 24 88       	mov    %rcx,-0x78(%rsp)
    22e5:	41 0f 92 c7          	setb   %r15b
    22e9:	80 84 24 90 00 00 00 	addb   $0xff,0x90(%rsp)
    22f0:	ff 
    22f1:	48 8b 84 24 00 01 00 	mov    0x100(%rsp),%rax
    22f8:	00 
    22f9:	48 13 84 24 08 01 00 	adc    0x108(%rsp),%rax
    2300:	00 
    2301:	0f 92 44 24 18       	setb   0x18(%rsp)
    2306:	48 89 d8             	mov    %rbx,%rax
    2309:	48 11 c8             	adc    %rcx,%rax
    230c:	48 8b 4c 24 c8       	mov    -0x38(%rsp),%rcx
    2311:	48 01 4c 24 10       	add    %rcx,0x10(%rsp)
    2316:	b9 00 00 00 00       	mov    $0x0,%ecx
    231b:	0f 92 c1             	setb   %cl
    231e:	80 84 24 88 00 00 00 	addb   $0xff,0x88(%rsp)
    2325:	ff 
    2326:	48 11 c1             	adc    %rax,%rcx
    2329:	48 89 4c 24 e0       	mov    %rcx,-0x20(%rsp)
    232e:	0f 92 44 24 d0       	setb   -0x30(%rsp)
    2333:	4c 8b 5c 24 20       	mov    0x20(%rsp),%r11
    2338:	4c 89 d8             	mov    %r11,%rax
    233b:	48 f7 64 24 68       	mulq   0x68(%rsp)
    2340:	80 44 24 78 ff       	addb   $0xff,0x78(%rsp)
    2345:	48 83 54 24 70 00    	adcq   $0x0,0x70(%rsp)
    234b:	40 0f 92 c6          	setb   %sil
    234f:	48 89 d1             	mov    %rdx,%rcx
    2352:	48 83 d1 00          	adc    $0x0,%rcx
    2356:	8a 44 24 50          	mov    0x50(%rsp),%al
    235a:	89 c3                	mov    %eax,%ebx
    235c:	80 c3 ff             	add    $0xff,%bl
    235f:	40 0f b6 f6          	movzbl %sil,%esi
    2363:	48 11 d6             	adc    %rdx,%rsi
    2366:	48 89 74 24 28       	mov    %rsi,0x28(%rsp)
    236b:	80 44 24 f0 ff       	addb   $0xff,-0x10(%rsp)
    2370:	4c 13 4c 24 a8       	adc    -0x58(%rsp),%r9
    2375:	48 83 d5 00          	adc    $0x0,%rbp
    2379:	31 f6                	xor    %esi,%esi
    237b:	48 3b 6c 24 58       	cmp    0x58(%rsp),%rbp
    2380:	40 0f 92 c6          	setb   %sil
    2384:	04 ff                	add    $0xff,%al
    2386:	48 11 ce             	adc    %rcx,%rsi
    2389:	80 44 24 48 ff       	addb   $0xff,0x48(%rsp)
    238e:	49 11 ec             	adc    %rbp,%r12
    2391:	0f 92 c3             	setb   %bl
    2394:	48 8b 44 24 90       	mov    -0x70(%rsp),%rax
    2399:	48 b9 9a e6 7f 39 ea 	movabs $0x1a0111ea397fe69a,%rcx
    23a0:	11 01 1a 
    23a3:	48 f7 e1             	mul    %rcx
    23a6:	48 89 d1             	mov    %rdx,%rcx
    23a9:	48 3b 7c 24 b0       	cmp    -0x50(%rsp),%rdi
    23ae:	48 83 d1 00          	adc    $0x0,%rcx
    23b2:	4c 01 e1             	add    %r12,%rcx
    23b5:	44 0f b6 e3          	movzbl %bl,%r12d
    23b9:	49 11 f4             	adc    %rsi,%r12
    23bc:	80 44 24 f8 ff       	addb   $0xff,-0x8(%rsp)
    23c1:	4c 13 b4 24 30 01 00 	adc    0x130(%rsp),%r14
    23c8:	00 
    23c9:	0f 92 44 24 a8       	setb   -0x58(%rsp)
    23ce:	48 8b 84 24 f8 00 00 	mov    0xf8(%rsp),%rax
    23d5:	00 
    23d6:	48 11 c8             	adc    %rcx,%rax
    23d9:	80 44 24 87 ff       	addb   $0xff,-0x79(%rsp)
    23de:	49 11 c7             	adc    %rax,%r15
    23e1:	0f 92 44 24 b0       	setb   -0x50(%rsp)
    23e6:	48 8b 44 24 08       	mov    0x8(%rsp),%rax
    23eb:	49 f7 e5             	mul    %r13
    23ee:	48 89 d6             	mov    %rdx,%rsi
    23f1:	8a 5c 24 e8          	mov    -0x18(%rsp),%bl
    23f5:	89 d8                	mov    %ebx,%eax
    23f7:	04 ff                	add    $0xff,%al
    23f9:	48 89 d0             	mov    %rdx,%rax
    23fc:	48 83 d0 00          	adc    $0x0,%rax
    2400:	41 0f 92 c6          	setb   %r14b
    2404:	40 0f 92 c7          	setb   %dil
    2408:	4c 89 d8             	mov    %r11,%rax
    240b:	4d 0f af dd          	imul   %r13,%r11
    240f:	49 f7 e5             	mul    %r13
    2412:	49 89 d5             	mov    %rdx,%r13
    2415:	80 c3 ff             	add    $0xff,%bl
    2418:	49 11 f3             	adc    %rsi,%r11
    241b:	40 0f b6 c7          	movzbl %dil,%eax
    241f:	0f 92 44 24 08       	setb   0x8(%rsp)
    2424:	48 11 d0             	adc    %rdx,%rax
    2427:	48 89 44 24 90       	mov    %rax,-0x70(%rsp)
    242c:	48 b8 32 4c b2 9f f3 	movabs $0x48669f39fb24c32,%rax
    2433:	69 86 04 
    2436:	48 8b 74 24 a0       	mov    -0x60(%rsp),%rsi
    243b:	48 0f af f0          	imul   %rax,%rsi
    243f:	48 89 74 24 a0       	mov    %rsi,-0x60(%rsp)
    2444:	48 8b 44 24 d8       	mov    -0x28(%rsp),%rax
    2449:	48 ba d7 ac 4b 43 b6 	movabs $0x4b1ba7b6434bacd7,%rdx
    2450:	a7 1b 4b 
    2453:	48 f7 e2             	mul    %rdx
    2456:	48 89 d5             	mov    %rdx,%rbp
    2459:	48 01 f5             	add    %rsi,%rbp
    245c:	4d 39 d0             	cmp    %r10,%r8
    245f:	48 83 d5 00          	adc    $0x0,%rbp
    2463:	45 31 c9             	xor    %r9d,%r9d
    2466:	49 01 ef             	add    %rbp,%r15
    2469:	41 0f 92 c1          	setb   %r9b
    246d:	80 44 24 18 ff       	addb   $0xff,0x18(%rsp)
    2472:	48 8b 44 24 88       	mov    -0x78(%rsp),%rax
    2477:	48 13 44 24 c0       	adc    -0x40(%rsp),%rax
    247c:	0f 92 44 24 88       	setb   -0x78(%rsp)
    2481:	48 8b 5c 24 98       	mov    -0x68(%rsp),%rbx
    2486:	4c 11 fb             	adc    %r15,%rbx
    2489:	48 bf c3 c7 33 ed a4 	movabs $0x2a880aa4ed33c7c3,%rdi
    2490:	0a 88 2a 
    2493:	48 0f af 3c 24       	imul   (%rsp),%rdi
    2498:	48 8b 44 24 b8       	mov    -0x48(%rsp),%rax
    249d:	48 ba 24 f6 b0 f6 a0 	movabs $0x6730d2a0f6b0f624,%rdx
    24a4:	d2 30 67 
    24a7:	48 f7 e2             	mul    %rdx
    24aa:	48 89 d6             	mov    %rdx,%rsi
    24ad:	48 01 fe             	add    %rdi,%rsi
    24b0:	49 89 f8             	mov    %rdi,%r8
    24b3:	48 8b 44 24 60       	mov    0x60(%rsp),%rax
    24b8:	48 39 44 24 c8       	cmp    %rax,-0x38(%rsp)
    24bd:	48 83 d6 00          	adc    $0x0,%rsi
    24c1:	45 31 d2             	xor    %r10d,%r10d
    24c4:	48 01 74 24 e0       	add    %rsi,-0x20(%rsp)
    24c9:	41 0f 92 c2          	setb   %r10b
    24cd:	80 44 24 d0 ff       	addb   $0xff,-0x30(%rsp)
    24d2:	49 11 da             	adc    %rbx,%r10
    24d5:	0f 92 44 24 d0       	setb   -0x30(%rsp)
    24da:	41 80 c6 ff          	add    $0xff,%r14b
    24de:	49 83 d5 00          	adc    $0x0,%r13
    24e2:	80 44 24 a8 ff       	addb   $0xff,-0x58(%rsp)
    24e7:	48 13 8c 24 f8 00 00 	adc    0xf8(%rsp),%rcx
    24ee:	00 
    24ef:	49 83 d4 00          	adc    $0x0,%r12
    24f3:	31 ff                	xor    %edi,%edi
    24f5:	4c 3b 64 24 28       	cmp    0x28(%rsp),%r12
    24fa:	40 0f 92 c7          	setb   %dil
    24fe:	80 44 24 08 ff       	addb   $0xff,0x8(%rsp)
    2503:	4c 11 ef             	adc    %r13,%rdi
    2506:	80 44 24 b0 ff       	addb   $0xff,-0x50(%rsp)
    250b:	4d 11 e1             	adc    %r12,%r9
    250e:	0f 92 c3             	setb   %bl
    2511:	48 8b 44 24 d8       	mov    -0x28(%rsp),%rax
    2516:	48 b9 9a e6 7f 39 ea 	movabs $0x1a0111ea397fe69a,%rcx
    251d:	11 01 1a 
    2520:	48 f7 e1             	mul    %rcx
    2523:	48 89 d1             	mov    %rdx,%rcx
    2526:	48 3b 6c 24 a0       	cmp    -0x60(%rsp),%rbp
    252b:	48 83 d1 00          	adc    $0x0,%rcx
    252f:	4c 01 c9             	add    %r9,%rcx
    2532:	0f b6 db             	movzbl %bl,%ebx
    2535:	48 11 fb             	adc    %rdi,%rbx
    2538:	80 44 24 88 ff       	addb   $0xff,-0x78(%rsp)
    253d:	4c 13 7c 24 98       	adc    -0x68(%rsp),%r15
    2542:	41 0f 92 c1          	setb   %r9b
    2546:	4c 89 dd             	mov    %r11,%rbp
    2549:	48 11 cd             	adc    %rcx,%rbp
    254c:	49 bf 7b f9 97 2f 75 	movabs $0x299338752f97f97b,%r15
    2553:	38 93 29 
    2556:	4c 8b 24 24          	mov    (%rsp),%r12
    255a:	4d 0f af fc          	imul   %r12,%r15
    255e:	4c 8b 6c 24 b8       	mov    -0x48(%rsp),%r13
    2563:	4c 89 e8             	mov    %r13,%rax
    2566:	49 be bf 12 85 f3 84 	movabs $0x64774b84f38512bf,%r14
    256d:	4b 77 64 
    2570:	49 f7 e6             	mul    %r14
    2573:	48 89 d7             	mov    %rdx,%rdi
    2576:	4c 01 ff             	add    %r15,%rdi
    2579:	4c 39 c6             	cmp    %r8,%rsi
    257c:	48 83 d7 00          	adc    $0x0,%rdi
    2580:	45 31 f6             	xor    %r14d,%r14d
    2583:	49 01 fa             	add    %rdi,%r10
    2586:	41 0f 92 c6          	setb   %r14b
    258a:	80 44 24 d0 ff       	addb   $0xff,-0x30(%rsp)
    258f:	49 11 ee             	adc    %rbp,%r14
    2592:	41 0f 92 c0          	setb   %r8b
    2596:	41 80 c1 ff          	add    $0xff,%r9b
    259a:	4c 11 d9             	adc    %r11,%rcx
    259d:	48 83 d3 00          	adc    $0x0,%rbx
    25a1:	45 31 c9             	xor    %r9d,%r9d
    25a4:	48 3b 5c 24 90       	cmp    -0x70(%rsp),%rbx
    25a9:	41 0f 92 c1          	setb   %r9b
    25ad:	48 b8 32 4c b2 9f f3 	movabs $0x48669f39fb24c32,%rax
    25b4:	69 86 04 
    25b7:	4c 0f af e0          	imul   %rax,%r12
    25bb:	4c 89 e8             	mov    %r13,%rax
    25be:	49 bb d7 ac 4b 43 b6 	movabs $0x4b1ba7b6434bacd7,%r11
    25c5:	a7 1b 4b 
    25c8:	49 f7 e3             	mul    %r11
    25cb:	48 89 d1             	mov    %rdx,%rcx
    25ce:	4c 01 e1             	add    %r12,%rcx
    25d1:	4c 39 ff             	cmp    %r15,%rdi
    25d4:	48 83 d1 00          	adc    $0x0,%rcx
    25d8:	31 c0                	xor    %eax,%eax
    25da:	49 01 ce             	add    %rcx,%r14
    25dd:	0f 92 c0             	setb   %al
    25e0:	41 80 c0 ff          	add    $0xff,%r8b
    25e4:	48 11 d8             	adc    %rbx,%rax
    25e7:	48 89 c5             	mov    %rax,%rbp
    25ea:	48 89 44 24 98       	mov    %rax,-0x68(%rsp)
    25ef:	0f 92 c3             	setb   %bl
    25f2:	4c 89 c8             	mov    %r9,%rax
    25f5:	48 83 d0 00          	adc    $0x0,%rax
    25f9:	48 89 44 24 a0       	mov    %rax,-0x60(%rsp)
    25fe:	4c 89 e8             	mov    %r13,%rax
    2601:	48 bf 9a e6 7f 39 ea 	movabs $0x1a0111ea397fe69a,%rdi
    2608:	11 01 1a 
    260b:	48 f7 e7             	mul    %rdi
    260e:	4c 39 e1             	cmp    %r12,%rcx
    2611:	48 83 d2 00          	adc    $0x0,%rdx
    2615:	48 89 54 24 d8       	mov    %rdx,-0x28(%rsp)
    261a:	48 01 d5             	add    %rdx,%rbp
    261d:	0f b6 c3             	movzbl %bl,%eax
    2620:	4c 11 c8             	adc    %r9,%rax
    2623:	48 89 44 24 b8       	mov    %rax,-0x48(%rsp)
    2628:	48 39 fd             	cmp    %rdi,%rbp
    262b:	b8 ff ff ff ff       	mov    $0xffffffff,%eax
    2630:	83 d0 00             	adc    $0x0,%eax
    2633:	89 04 24             	mov    %eax,(%rsp)
    2636:	31 c0                	xor    %eax,%eax
    2638:	48 29 fd             	sub    %rdi,%rbp
    263b:	48 89 6c 24 b0       	mov    %rbp,-0x50(%rsp)
    2640:	0f 92 c0             	setb   %al
    2643:	48 89 44 24 28       	mov    %rax,0x28(%rsp)
    2648:	48 c7 c0 fe ff ff ff 	mov    $0xfffffffffffffffe,%rax
    264f:	48 83 d0 00          	adc    $0x0,%rax
    2653:	48 89 44 24 d0       	mov    %rax,-0x30(%rsp)
    2658:	4c 89 74 24 88       	mov    %r14,-0x78(%rsp)
    265d:	4d 39 de             	cmp    %r11,%r14
    2660:	b9 ff ff ff ff       	mov    $0xffffffff,%ecx
    2665:	83 d1 00             	adc    $0x0,%ecx
    2668:	89 4c 24 c0          	mov    %ecx,-0x40(%rsp)
    266c:	31 c9                	xor    %ecx,%ecx
    266e:	4d 29 de             	sub    %r11,%r14
    2671:	4c 89 74 24 20       	mov    %r14,0x20(%rsp)
    2676:	0f 92 c1             	setb   %cl
    2679:	48 89 4c 24 18       	mov    %rcx,0x18(%rsp)
    267e:	48 c7 c0 fe ff ff ff 	mov    $0xfffffffffffffffe,%rax
    2685:	48 83 d0 00          	adc    $0x0,%rax
    2689:	48 89 44 24 c8       	mov    %rax,-0x38(%rsp)
    268e:	48 b8 bf 12 85 f3 84 	movabs $0x64774b84f38512bf,%rax
    2695:	4b 77 64 
    2698:	4c 89 54 24 08       	mov    %r10,0x8(%rsp)
    269d:	49 39 c2             	cmp    %rax,%r10
    26a0:	b9 ff ff ff ff       	mov    $0xffffffff,%ecx
    26a5:	83 d1 00             	adc    $0x0,%ecx
    26a8:	89 4c 24 f8          	mov    %ecx,-0x8(%rsp)
    26ac:	45 31 ff             	xor    %r15d,%r15d
    26af:	4d 89 d5             	mov    %r10,%r13
    26b2:	49 29 c5             	sub    %rax,%r13
    26b5:	41 0f 92 c7          	setb   %r15b
    26b9:	48 c7 c0 fe ff ff ff 	mov    $0xfffffffffffffffe,%rax
    26c0:	48 83 d0 00          	adc    $0x0,%rax
    26c4:	48 89 44 24 a8       	mov    %rax,-0x58(%rsp)
    26c9:	48 b8 24 f6 b0 f6 a0 	movabs $0x6730d2a0f6b0f624,%rax
    26d0:	d2 30 67 
    26d3:	4c 8b 5c 24 e0       	mov    -0x20(%rsp),%r11
    26d8:	49 39 c3             	cmp    %rax,%r11
    26db:	bd ff ff ff ff       	mov    $0xffffffff,%ebp
    26e0:	83 d5 00             	adc    $0x0,%ebp
    26e3:	45 31 c9             	xor    %r9d,%r9d
    26e6:	49 29 c3             	sub    %rax,%r11
    26e9:	41 0f 92 c1          	setb   %r9b
    26ed:	49 c7 c4 fe ff ff ff 	mov    $0xfffffffffffffffe,%r12
    26f4:	49 83 d4 00          	adc    $0x0,%r12
    26f8:	48 b8 ff ff 53 b1 fe 	movabs $0x1eabfffeb153ffff,%rax
    26ff:	ff ab 1e 
    2702:	48 8b 7c 24 10       	mov    0x10(%rsp),%rdi
    2707:	48 39 c7             	cmp    %rax,%rdi
    270a:	bb ff ff ff ff       	mov    $0xffffffff,%ebx
    270f:	83 d3 00             	adc    $0x0,%ebx
    2712:	31 f6                	xor    %esi,%esi
    2714:	48 29 c7             	sub    %rax,%rdi
    2717:	40 0f 92 c6          	setb   %sil
    271b:	49 c7 c0 fe ff ff ff 	mov    $0xfffffffffffffffe,%r8
    2722:	49 83 d0 00          	adc    $0x0,%r8
    2726:	49 be ab aa ff ff ff 	movabs $0xb9feffffffffaaab,%r14
    272d:	ff fe b9 
    2730:	48 8b 44 24 30       	mov    0x30(%rsp),%rax
    2735:	4c 39 f0             	cmp    %r14,%rax
    2738:	ba ff ff ff ff       	mov    $0xffffffff,%edx
    273d:	83 d2 00             	adc    $0x0,%edx
    2740:	45 31 d2             	xor    %r10d,%r10d
    2743:	4c 29 f0             	sub    %r14,%rax
    2746:	48 89 44 24 90       	mov    %rax,-0x70(%rsp)
    274b:	41 0f 92 c2          	setb   %r10b
    274f:	48 c7 c0 fe ff ff ff 	mov    $0xfffffffffffffffe,%rax
    2756:	48 83 d0 00          	adc    $0x0,%rax
    275a:	41 21 d2             	and    %edx,%r10d
    275d:	49 31 c2             	xor    %rax,%r10
    2760:	21 de                	and    %ebx,%esi
    2762:	4c 31 c6             	xor    %r8,%rsi
    2765:	49 01 fa             	add    %rdi,%r10
    2768:	45 31 f6             	xor    %r14d,%r14d
    276b:	4c 39 d7             	cmp    %r10,%rdi
    276e:	41 0f 92 c6          	setb   %r14b
    2772:	41 21 e9             	and    %ebp,%r9d
    2775:	41 8d 46 ff          	lea    -0x1(%r14),%eax
    2779:	44 21 f0             	and    %r14d,%eax
    277c:	49 83 ce fe          	or     $0xfffffffffffffffe,%r14
    2780:	49 31 c6             	xor    %rax,%r14
    2783:	49 01 f6             	add    %rsi,%r14
    2786:	4d 31 e1             	xor    %r12,%r9
    2789:	4d 01 de             	add    %r11,%r14
    278c:	31 c9                	xor    %ecx,%ecx
    278e:	4d 39 f3             	cmp    %r14,%r11
    2791:	0f 92 c1             	setb   %cl
    2794:	44 23 7c 24 f8       	and    -0x8(%rsp),%r15d
    2799:	8d 41 ff             	lea    -0x1(%rcx),%eax
    279c:	21 c8                	and    %ecx,%eax
    279e:	48 83 c9 fe          	or     $0xfffffffffffffffe,%rcx
    27a2:	48 31 c1             	xor    %rax,%rcx
    27a5:	4c 01 c9             	add    %r9,%rcx
    27a8:	4c 33 7c 24 a8       	xor    -0x58(%rsp),%r15
    27ad:	4c 01 e9             	add    %r13,%rcx
    27b0:	31 c0                	xor    %eax,%eax
    27b2:	49 39 cd             	cmp    %rcx,%r13
    27b5:	0f 92 c0             	setb   %al
    27b8:	48 8b 74 24 18       	mov    0x18(%rsp),%rsi
    27bd:	23 74 24 c0          	and    -0x40(%rsp),%esi
    27c1:	8d 50 ff             	lea    -0x1(%rax),%edx
    27c4:	21 c2                	and    %eax,%edx
    27c6:	48 83 c8 fe          	or     $0xfffffffffffffffe,%rax
    27ca:	48 31 d0             	xor    %rdx,%rax
    27cd:	4c 01 f8             	add    %r15,%rax
    27d0:	48 33 74 24 c8       	xor    -0x38(%rsp),%rsi
    27d5:	48 89 f5             	mov    %rsi,%rbp
    27d8:	48 8b 54 24 20       	mov    0x20(%rsp),%rdx
    27dd:	48 01 d0             	add    %rdx,%rax
    27e0:	31 f6                	xor    %esi,%esi
    27e2:	48 39 c2             	cmp    %rax,%rdx
    27e5:	40 0f 92 c6          	setb   %sil
    27e9:	48 8b 7c 24 28       	mov    0x28(%rsp),%rdi
    27ee:	23 3c 24             	and    (%rsp),%edi
    27f1:	8d 56 ff             	lea    -0x1(%rsi),%edx
    27f4:	21 f2                	and    %esi,%edx
    27f6:	48 83 ce fe          	or     $0xfffffffffffffffe,%rsi
    27fa:	48 31 d6             	xor    %rdx,%rsi
    27fd:	48 01 ee             	add    %rbp,%rsi
    2800:	48 33 7c 24 d0       	xor    -0x30(%rsp),%rdi
    2805:	48 89 fd             	mov    %rdi,%rbp
    2808:	48 8b 7c 24 b0       	mov    -0x50(%rsp),%rdi
    280d:	48 01 fe             	add    %rdi,%rsi
    2810:	31 d2                	xor    %edx,%edx
    2812:	48 39 f7             	cmp    %rsi,%rdi
    2815:	0f 92 c2             	setb   %dl
    2818:	8d 7a ff             	lea    -0x1(%rdx),%edi
    281b:	21 d7                	and    %edx,%edi
    281d:	48 83 ca fe          	or     $0xfffffffffffffffe,%rdx
    2821:	48 31 fa             	xor    %rdi,%rdx
    2824:	48 01 ea             	add    %rbp,%rdx
    2827:	4c 8b 44 24 d8       	mov    -0x28(%rsp),%r8
    282c:	4c 03 44 24 98       	add    -0x68(%rsp),%r8
    2831:	48 13 54 24 a0       	adc    -0x60(%rsp),%rdx
    2836:	31 ff                	xor    %edi,%edi
    2838:	48 39 54 24 b8       	cmp    %rdx,-0x48(%rsp)
    283d:	40 0f 92 c7          	setb   %dil
    2841:	8d 57 ff             	lea    -0x1(%rdi),%edx
    2844:	21 fa                	and    %edi,%edx
    2846:	31 fa                	xor    %edi,%edx
    2848:	48 83 ca fe          	or     $0xfffffffffffffffe,%rdx
    284c:	48 8b 6c 24 10       	mov    0x10(%rsp),%rbp
    2851:	48 21 d5             	and    %rdx,%rbp
    2854:	48 83 f7 01          	xor    $0x1,%rdi
    2858:	4c 0f af d7          	imul   %rdi,%r10
    285c:	49 09 ea             	or     %rbp,%r10
    285f:	48 8b 6c 24 e0       	mov    -0x20(%rsp),%rbp
    2864:	48 21 d5             	and    %rdx,%rbp
    2867:	4c 0f af f7          	imul   %rdi,%r14
    286b:	49 09 ee             	or     %rbp,%r14
    286e:	48 8b 6c 24 08       	mov    0x8(%rsp),%rbp
    2873:	48 21 d5             	and    %rdx,%rbp
    2876:	48 0f af cf          	imul   %rdi,%rcx
    287a:	48 09 e9             	or     %rbp,%rcx
    287d:	48 8b 6c 24 88       	mov    -0x78(%rsp),%rbp
    2882:	48 21 d5             	and    %rdx,%rbp
    2885:	48 0f af c7          	imul   %rdi,%rax
    2889:	48 09 e8             	or     %rbp,%rax
    288c:	48 8b 6c 24 30       	mov    0x30(%rsp),%rbp
    2891:	48 21 d5             	and    %rdx,%rbp
    2894:	48 8b 5c 24 90       	mov    -0x70(%rsp),%rbx
    2899:	48 0f af df          	imul   %rdi,%rbx
    289d:	48 09 eb             	or     %rbp,%rbx
    28a0:	48 8b ac 24 38 01 00 	mov    0x138(%rsp),%rbp
    28a7:	00 
    28a8:	48 89 5d 00          	mov    %rbx,0x0(%rbp)
    28ac:	4c 89 55 08          	mov    %r10,0x8(%rbp)
    28b0:	4c 89 75 10          	mov    %r14,0x10(%rbp)
    28b4:	48 89 4d 18          	mov    %rcx,0x18(%rbp)
    28b8:	48 89 45 20          	mov    %rax,0x20(%rbp)
    28bc:	4c 21 c2             	and    %r8,%rdx
    28bf:	48 0f af fe          	imul   %rsi,%rdi
    28c3:	48 09 d7             	or     %rdx,%rdi
    28c6:	48 89 7d 28          	mov    %rdi,0x28(%rbp)
    28ca:	48 81 c4 40 01 00 00 	add    $0x140,%rsp
    28d1:	5b                   	pop    %rbx
    28d2:	41 5c                	pop    %r12
    28d4:	41 5d                	pop    %r13
    28d6:	41 5e                	pop    %r14
    28d8:	41 5f                	pop    %r15
    28da:	5d                   	pop    %rbp
    28db:	c3                   	ret    

Disassembly of section .fini:

00000000000028dc <_fini>:
    28dc:	f3 0f 1e fa          	endbr64 
    28e0:	48 83 ec 08          	sub    $0x8,%rsp
    28e4:	48 83 c4 08          	add    $0x8,%rsp
    28e8:	c3                   	ret    
